ARM GAS  C:\Users\qwertym\AppData\Local\Temp\ccBzkxZC.s 			page 1


   1              		.cpu cortex-m3
   2              		.arch armv7-m
   3              		.fpu softvfp
   4              		.eabi_attribute 20, 1
   5              		.eabi_attribute 21, 1
   6              		.eabi_attribute 23, 3
   7              		.eabi_attribute 24, 1
   8              		.eabi_attribute 25, 1
   9              		.eabi_attribute 26, 1
  10              		.eabi_attribute 30, 1
  11              		.eabi_attribute 34, 1
  12              		.eabi_attribute 18, 4
  13              		.file	"serial.c"
  14              		.text
  15              	.Ltext0:
  16              		.cfi_sections	.debug_frame
  17              		.file 1 "Core/Src/serial.c"
  18              		.section	.text.HAL_UART_RxCpltCallback,"ax",%progbits
  19              		.align	1
  20              		.global	HAL_UART_RxCpltCallback
  21              		.syntax unified
  22              		.thumb
  23              		.thumb_func
  25              	HAL_UART_RxCpltCallback:
  26              	.LVL0:
  27              	.LFB68:
   1:Core/Src/serial.c **** #include "serial.h"
   2:Core/Src/serial.c **** 
   3:Core/Src/serial.c **** uint8_t message[200]; // Êé•Êî∂Â≠óÁ¨¶‰∏≤ÁéØÂΩ¢ÁºìÂÜ≤Âå∫
   4:Core/Src/serial.c **** uint8_t offset;       // Êé•Êî∂Â≠óÁ¨¶‰∏≤ÁºìÂÜ≤Âå∫ÁöÑ‰∏ãÊ†áÂèäÂ§ßÂ∞è
   5:Core/Src/serial.c **** uint8_t mesg;         // Áî®‰∫é‰∏≠Êñ≠Êó∂ÔºåÊé•Êî∂Âçï‰∏™Â≠óÁ¨¶
   6:Core/Src/serial.c **** uint8_t RX_Flag;      // ÂèëÁîü‰∏≠Êñ≠ÁöÑÊ†áÂøó
   7:Core/Src/serial.c **** uint8_t GAIN_F;       // Êé•ÂèóÂÆåÊï¥ËØ≠Âè•ÁöÑÊ†áÂøó
   8:Core/Src/serial.c **** uint8_t seekp = 0;
   9:Core/Src/serial.c **** 
  10:Core/Src/serial.c **** /**
  11:Core/Src/serial.c ****  * @brief ÈáçÂÜô‰∏≤Âè£‰∏≠Êñ≠
  12:Core/Src/serial.c ****  */
  13:Core/Src/serial.c **** void HAL_UART_RxCpltCallback(UART_HandleTypeDef *huart)
  14:Core/Src/serial.c **** {
  28              		.loc 1 14 1 view -0
  29              		.cfi_startproc
  30              		@ args = 0, pretend = 0, frame = 0
  31              		@ frame_needed = 0, uses_anonymous_args = 0
  32              		.loc 1 14 1 is_stmt 0 view .LVU1
  33 0000 08B5     		push	{r3, lr}
  34              		.cfi_def_cfa_offset 8
  35              		.cfi_offset 3, -8
  36              		.cfi_offset 14, -4
  15:Core/Src/serial.c ****     if (offset == 200)
  37              		.loc 1 15 5 is_stmt 1 view .LVU2
  38              		.loc 1 15 16 is_stmt 0 view .LVU3
  39 0002 124B     		ldr	r3, .L8
  40 0004 1B78     		ldrb	r3, [r3]	@ zero_extendqisi2
  41              		.loc 1 15 8 view .LVU4
  42 0006 C82B     		cmp	r3, #200
  43 0008 19D0     		beq	.L6
ARM GAS  C:\Users\qwertym\AppData\Local\Temp\ccBzkxZC.s 			page 2


  44              	.L2:
  16:Core/Src/serial.c ****         offset = 0;
  17:Core/Src/serial.c ****     if (mesg != '\r' && mesg != '\n' && mesg != 255) // ÂøΩÁï•Ëøô‰∫õÂ≠óÁ¨¶,ÂèçÊ≠£Êú¨Êù•‰πüÊ≤°Áî®
  45              		.loc 1 17 5 is_stmt 1 view .LVU5
  46              		.loc 1 17 14 is_stmt 0 view .LVU6
  47 000a 114B     		ldr	r3, .L8+4
  48 000c 1B78     		ldrb	r3, [r3]	@ zero_extendqisi2
  49              		.loc 1 17 8 view .LVU7
  50 000e 0D2B     		cmp	r3, #13
  51 0010 0BD0     		beq	.L3
  52              		.loc 1 17 22 discriminator 1 view .LVU8
  53 0012 0A2B     		cmp	r3, #10
  54 0014 09D0     		beq	.L3
  55              		.loc 1 17 38 discriminator 2 view .LVU9
  56 0016 FF2B     		cmp	r3, #255
  57 0018 07D0     		beq	.L3
  18:Core/Src/serial.c ****         message[offset++] = mesg;
  58              		.loc 1 18 9 is_stmt 1 view .LVU10
  59              		.loc 1 18 23 is_stmt 0 view .LVU11
  60 001a 0C49     		ldr	r1, .L8
  61 001c 0A78     		ldrb	r2, [r1]	@ zero_extendqisi2
  62 001e 02F1010C 		add	ip, r2, #1
  63 0022 81F800C0 		strb	ip, [r1]
  64              		.loc 1 18 27 view .LVU12
  65 0026 0B49     		ldr	r1, .L8+8
  66 0028 8B54     		strb	r3, [r1, r2]
  67              	.L3:
  19:Core/Src/serial.c ****     RX_Flag = 1;
  68              		.loc 1 19 5 is_stmt 1 view .LVU13
  69              		.loc 1 19 13 is_stmt 0 view .LVU14
  70 002a 0B4A     		ldr	r2, .L8+12
  71 002c 0121     		movs	r1, #1
  72 002e 1170     		strb	r1, [r2]
  20:Core/Src/serial.c ****     if (mesg == ';') // ËØªÂà∞;ËØ¥ÊòéÂ∑≤Âà∞ËææÂÆåÊï¥ËØ≠Âè•ÁªìÂ∞æ
  73              		.loc 1 20 5 is_stmt 1 view .LVU15
  74              		.loc 1 20 8 is_stmt 0 view .LVU16
  75 0030 3B2B     		cmp	r3, #59
  76 0032 08D0     		beq	.L7
  77              	.L4:
  21:Core/Src/serial.c ****         GAIN_F = 1;
  22:Core/Src/serial.c ****     HAL_UART_Receive_IT(huart, (uint8_t *)&mesg, 1);
  78              		.loc 1 22 5 is_stmt 1 view .LVU17
  79 0034 0122     		movs	r2, #1
  80 0036 0649     		ldr	r1, .L8+4
  81 0038 FFF7FEFF 		bl	HAL_UART_Receive_IT
  82              	.LVL1:
  23:Core/Src/serial.c **** }
  83              		.loc 1 23 1 is_stmt 0 view .LVU18
  84 003c 08BD     		pop	{r3, pc}
  85              	.LVL2:
  86              	.L6:
  16:Core/Src/serial.c ****     if (mesg != '\r' && mesg != '\n' && mesg != 255) // ÂøΩÁï•Ëøô‰∫õÂ≠óÁ¨¶,ÂèçÊ≠£Êú¨Êù•‰πüÊ≤°Áî®
  87              		.loc 1 16 9 is_stmt 1 view .LVU19
  16:Core/Src/serial.c ****     if (mesg != '\r' && mesg != '\n' && mesg != 255) // ÂøΩÁï•Ëøô‰∫õÂ≠óÁ¨¶,ÂèçÊ≠£Êú¨Êù•‰πüÊ≤°Áî®
  88              		.loc 1 16 16 is_stmt 0 view .LVU20
  89 003e 034B     		ldr	r3, .L8
  90 0040 0022     		movs	r2, #0
ARM GAS  C:\Users\qwertym\AppData\Local\Temp\ccBzkxZC.s 			page 3


  91 0042 1A70     		strb	r2, [r3]
  92 0044 E1E7     		b	.L2
  93              	.L7:
  21:Core/Src/serial.c ****         GAIN_F = 1;
  94              		.loc 1 21 9 is_stmt 1 view .LVU21
  21:Core/Src/serial.c ****         GAIN_F = 1;
  95              		.loc 1 21 16 is_stmt 0 view .LVU22
  96 0046 054B     		ldr	r3, .L8+16
  97 0048 1970     		strb	r1, [r3]
  98 004a F3E7     		b	.L4
  99              	.L9:
 100              		.align	2
 101              	.L8:
 102 004c 00000000 		.word	offset
 103 0050 00000000 		.word	mesg
 104 0054 00000000 		.word	message
 105 0058 00000000 		.word	RX_Flag
 106 005c 00000000 		.word	GAIN_F
 107              		.cfi_endproc
 108              	.LFE68:
 110              		.section	.text.readStr,"ax",%progbits
 111              		.align	1
 112              		.global	readStr
 113              		.syntax unified
 114              		.thumb
 115              		.thumb_func
 117              	readStr:
 118              	.LVL3:
 119              	.LFB69:
  24:Core/Src/serial.c **** /**
  25:Core/Src/serial.c ****  * @brief ‰ªéÁºìÂÜ≤Âå∫ËØªÂèñÂ≠óÁ¨¶‰∏≤
  26:Core/Src/serial.c ****  * @param buf Êé•Êî∂ÁöÑÂ≠óÁ¨¶‰∏≤
  27:Core/Src/serial.c ****  * @retval ËØªÂèñÁöÑÂ≠óÁ¨¶‰∏≤ÈïøÂ∫¶
  28:Core/Src/serial.c ****  */
  29:Core/Src/serial.c **** int readStr(uint8_t *buf)
  30:Core/Src/serial.c **** {
 120              		.loc 1 30 1 is_stmt 1 view -0
 121              		.cfi_startproc
 122              		@ args = 0, pretend = 0, frame = 0
 123              		@ frame_needed = 0, uses_anonymous_args = 0
 124              		.loc 1 30 1 is_stmt 0 view .LVU24
 125 0000 70B5     		push	{r4, r5, r6, lr}
 126              		.cfi_def_cfa_offset 16
 127              		.cfi_offset 4, -16
 128              		.cfi_offset 5, -12
 129              		.cfi_offset 6, -8
 130              		.cfi_offset 14, -4
 131 0002 0546     		mov	r5, r0
  31:Core/Src/serial.c ****     uint8_t tail = seekp;
 132              		.loc 1 31 5 is_stmt 1 view .LVU25
 133              		.loc 1 31 13 is_stmt 0 view .LVU26
 134 0004 294B     		ldr	r3, .L27
 135 0006 1978     		ldrb	r1, [r3]	@ zero_extendqisi2
 136              	.LVL4:
  32:Core/Src/serial.c ****     uint8_t flag = 0;
 137              		.loc 1 32 5 is_stmt 1 view .LVU27
  33:Core/Src/serial.c ****     while (message[tail++] != ';')
ARM GAS  C:\Users\qwertym\AppData\Local\Temp\ccBzkxZC.s 			page 4


 138              		.loc 1 33 5 view .LVU28
  31:Core/Src/serial.c ****     uint8_t tail = seekp;
 139              		.loc 1 31 13 is_stmt 0 view .LVU29
 140 0008 0B46     		mov	r3, r1
  32:Core/Src/serial.c ****     uint8_t flag = 0;
 141              		.loc 1 32 13 view .LVU30
 142 000a 0020     		movs	r0, #0
 143              	.LVL5:
 144              	.L12:
 145              		.loc 1 33 28 is_stmt 1 view .LVU31
 146 000c 1C46     		mov	r4, r3
 147              		.loc 1 33 24 is_stmt 0 view .LVU32
 148 000e 0133     		adds	r3, r3, #1
 149              	.LVL6:
 150              		.loc 1 33 24 view .LVU33
 151 0010 DBB2     		uxtb	r3, r3
 152              	.LVL7:
 153              		.loc 1 33 19 view .LVU34
 154 0012 274A     		ldr	r2, .L27+4
 155 0014 125D     		ldrb	r2, [r2, r4]	@ zero_extendqisi2
 156              		.loc 1 33 28 view .LVU35
 157 0016 3B2A     		cmp	r2, #59
 158 0018 06D0     		beq	.L25
  34:Core/Src/serial.c ****     {
  35:Core/Src/serial.c ****         if (tail == 200)
 159              		.loc 1 35 9 is_stmt 1 view .LVU36
 160              		.loc 1 35 12 is_stmt 0 view .LVU37
 161 001a C82B     		cmp	r3, #200
 162 001c F6D1     		bne	.L12
  36:Core/Src/serial.c ****         {
  37:Core/Src/serial.c ****             tail = 0;
 163              		.loc 1 37 13 is_stmt 1 view .LVU38
 164              	.LVL8:
  38:Core/Src/serial.c ****             if (flag == 1)
 165              		.loc 1 38 13 view .LVU39
 166              		.loc 1 38 16 is_stmt 0 view .LVU40
 167 001e 0028     		cmp	r0, #0
 168 0020 41D1     		bne	.L22
  37:Core/Src/serial.c ****             if (flag == 1)
 169              		.loc 1 37 18 view .LVU41
 170 0022 0346     		mov	r3, r0
  39:Core/Src/serial.c ****             {
  40:Core/Src/serial.c ****                 buf = NULL;
  41:Core/Src/serial.c ****                 return 0;
  42:Core/Src/serial.c ****             }
  43:Core/Src/serial.c ****             flag = 1;
 171              		.loc 1 43 18 view .LVU42
 172 0024 0120     		movs	r0, #1
 173              	.LVL9:
 174              		.loc 1 43 18 view .LVU43
 175 0026 F1E7     		b	.L12
 176              	.LVL10:
 177              	.L25:
  44:Core/Src/serial.c ****         }
  45:Core/Src/serial.c ****     }
  46:Core/Src/serial.c ****     tail = tail == 0 ? 0 : tail - 1; // ÂΩ¢Â¶Ç123;ÁöÑËøîÂõû123'\0'ÔºåÂéªÊéâ;
 178              		.loc 1 46 5 is_stmt 1 view .LVU44
ARM GAS  C:\Users\qwertym\AppData\Local\Temp\ccBzkxZC.s 			page 5


 179              		.loc 1 46 10 is_stmt 0 view .LVU45
 180 0028 03B9     		cbnz	r3, .L15
 181 002a 1C46     		mov	r4, r3
 182              	.L15:
 183              	.LVL11:
  47:Core/Src/serial.c ****     if (flag == 0)
 184              		.loc 1 47 5 is_stmt 1 discriminator 4 view .LVU46
 185              		.loc 1 47 8 is_stmt 0 discriminator 4 view .LVU47
 186 002c F8B9     		cbnz	r0, .L16
  48:Core/Src/serial.c ****     {
  49:Core/Src/serial.c ****         memcpy(buf, message + seekp, tail - seekp);
 187              		.loc 1 49 9 is_stmt 1 view .LVU48
 188 002e 621A     		subs	r2, r4, r1
 189 0030 1F4B     		ldr	r3, .L27+4
 190 0032 1944     		add	r1, r1, r3
 191 0034 2846     		mov	r0, r5
 192              	.LVL12:
 193              		.loc 1 49 9 is_stmt 0 view .LVU49
 194 0036 FFF7FEFF 		bl	memcpy
 195              	.LVL13:
  50:Core/Src/serial.c ****         buf[tail - seekp] = '\0';
 196              		.loc 1 50 9 is_stmt 1 view .LVU50
 197              		.loc 1 50 18 is_stmt 0 view .LVU51
 198 003a 1C4B     		ldr	r3, .L27
 199 003c 1B78     		ldrb	r3, [r3]	@ zero_extendqisi2
 200 003e E31A     		subs	r3, r4, r3
 201              		.loc 1 50 27 view .LVU52
 202 0040 0022     		movs	r2, #0
 203 0042 EA54     		strb	r2, [r5, r3]
 204              	.L17:
  51:Core/Src/serial.c ****     }
  52:Core/Src/serial.c ****     else
  53:Core/Src/serial.c ****     {
  54:Core/Src/serial.c ****         memcpy(buf, message + seekp, 200 - seekp);
  55:Core/Src/serial.c ****         memcpy(buf + (200 - seekp - 1), message, tail);
  56:Core/Src/serial.c ****         buf[tail] = '\0';
  57:Core/Src/serial.c ****     }
  58:Core/Src/serial.c ****     if (tail + 1 == offset) // Ëã•Â∑≤ÁªèËØªÂÆåÁºìÂÜ≤Âå∫,Ê∏ÖÈô§GAIN_FÊ†áÂøó
 205              		.loc 1 58 5 is_stmt 1 view .LVU53
 206              		.loc 1 58 14 is_stmt 0 view .LVU54
 207 0044 2046     		mov	r0, r4
 208 0046 631C     		adds	r3, r4, #1
 209              		.loc 1 58 18 view .LVU55
 210 0048 1A4A     		ldr	r2, .L27+8
 211 004a 1278     		ldrb	r2, [r2]	@ zero_extendqisi2
 212              		.loc 1 58 8 view .LVU56
 213 004c 9342     		cmp	r3, r2
 214 004e 21D0     		beq	.L26
 215              	.L18:
  59:Core/Src/serial.c ****         GAIN_F = 0;
  60:Core/Src/serial.c ****     int len = tail < seekp ? 200 - seekp + tail + 1 : tail - seekp + 1;
 216              		.loc 1 60 5 is_stmt 1 view .LVU57
 217              		.loc 1 60 20 is_stmt 0 view .LVU58
 218 0050 164B     		ldr	r3, .L27
 219 0052 1B78     		ldrb	r3, [r3]	@ zero_extendqisi2
 220              		.loc 1 60 53 view .LVU59
 221 0054 A342     		cmp	r3, r4
ARM GAS  C:\Users\qwertym\AppData\Local\Temp\ccBzkxZC.s 			page 6


 222 0056 21D9     		bls	.L19
 223              		.loc 1 60 34 discriminator 1 view .LVU60
 224 0058 C3F1C803 		rsb	r3, r3, #200
 225              		.loc 1 60 42 discriminator 1 view .LVU61
 226 005c 1844     		add	r0, r0, r3
 227              		.loc 1 60 53 discriminator 1 view .LVU62
 228 005e 0130     		adds	r0, r0, #1
 229              	.L20:
 230              	.LVL14:
  61:Core/Src/serial.c ****     seekp = tail >= 199 ? 0 : tail + 1;
 231              		.loc 1 61 5 is_stmt 1 discriminator 4 view .LVU63
 232              		.loc 1 61 11 is_stmt 0 discriminator 4 view .LVU64
 233 0060 C62C     		cmp	r4, #198
 234 0062 1ED8     		bhi	.L23
 235              		.loc 1 61 11 discriminator 1 view .LVU65
 236 0064 0134     		adds	r4, r4, #1
 237              	.LVL15:
 238              		.loc 1 61 11 discriminator 1 view .LVU66
 239 0066 E4B2     		uxtb	r4, r4
 240              	.L21:
 241              		.loc 1 61 11 discriminator 4 view .LVU67
 242 0068 104B     		ldr	r3, .L27
 243 006a 1C70     		strb	r4, [r3]
  62:Core/Src/serial.c ****     return len;
 244              		.loc 1 62 5 is_stmt 1 discriminator 4 view .LVU68
 245              	.LVL16:
 246              	.L10:
  63:Core/Src/serial.c **** }
 247              		.loc 1 63 1 is_stmt 0 view .LVU69
 248 006c 70BD     		pop	{r4, r5, r6, pc}
 249              	.LVL17:
 250              	.L16:
  54:Core/Src/serial.c ****         memcpy(buf + (200 - seekp - 1), message, tail);
 251              		.loc 1 54 9 is_stmt 1 view .LVU70
 252 006e 104E     		ldr	r6, .L27+4
 253 0070 C1F1C802 		rsb	r2, r1, #200
 254 0074 3144     		add	r1, r1, r6
 255 0076 2846     		mov	r0, r5
 256              	.LVL18:
  54:Core/Src/serial.c ****         memcpy(buf + (200 - seekp - 1), message, tail);
 257              		.loc 1 54 9 is_stmt 0 view .LVU71
 258 0078 FFF7FEFF 		bl	memcpy
 259              	.LVL19:
  55:Core/Src/serial.c ****         buf[tail] = '\0';
 260              		.loc 1 55 9 is_stmt 1 view .LVU72
  55:Core/Src/serial.c ****         buf[tail] = '\0';
 261              		.loc 1 55 20 is_stmt 0 view .LVU73
 262 007c 0B4B     		ldr	r3, .L27
 263 007e 1878     		ldrb	r0, [r3]	@ zero_extendqisi2
 264 0080 C0F1C700 		rsb	r0, r0, #199
  55:Core/Src/serial.c ****         buf[tail] = '\0';
 265              		.loc 1 55 9 view .LVU74
 266 0084 2246     		mov	r2, r4
 267 0086 3146     		mov	r1, r6
 268 0088 2844     		add	r0, r0, r5
 269 008a FFF7FEFF 		bl	memcpy
 270              	.LVL20:
ARM GAS  C:\Users\qwertym\AppData\Local\Temp\ccBzkxZC.s 			page 7


  56:Core/Src/serial.c ****     }
 271              		.loc 1 56 9 is_stmt 1 view .LVU75
  56:Core/Src/serial.c ****     }
 272              		.loc 1 56 19 is_stmt 0 view .LVU76
 273 008e 0023     		movs	r3, #0
 274 0090 2B55     		strb	r3, [r5, r4]
 275 0092 D7E7     		b	.L17
 276              	.L26:
  59:Core/Src/serial.c ****     int len = tail < seekp ? 200 - seekp + tail + 1 : tail - seekp + 1;
 277              		.loc 1 59 9 is_stmt 1 view .LVU77
  59:Core/Src/serial.c ****     int len = tail < seekp ? 200 - seekp + tail + 1 : tail - seekp + 1;
 278              		.loc 1 59 16 is_stmt 0 view .LVU78
 279 0094 084B     		ldr	r3, .L27+12
 280 0096 0022     		movs	r2, #0
 281 0098 1A70     		strb	r2, [r3]
 282 009a D9E7     		b	.L18
 283              	.L19:
  60:Core/Src/serial.c ****     seekp = tail >= 199 ? 0 : tail + 1;
 284              		.loc 1 60 60 discriminator 2 view .LVU79
 285 009c C01A     		subs	r0, r0, r3
  60:Core/Src/serial.c ****     seekp = tail >= 199 ? 0 : tail + 1;
 286              		.loc 1 60 53 discriminator 2 view .LVU80
 287 009e 0130     		adds	r0, r0, #1
 288 00a0 DEE7     		b	.L20
 289              	.LVL21:
 290              	.L23:
  61:Core/Src/serial.c ****     return len;
 291              		.loc 1 61 11 view .LVU81
 292 00a2 0024     		movs	r4, #0
 293              	.LVL22:
  61:Core/Src/serial.c ****     return len;
 294              		.loc 1 61 11 view .LVU82
 295 00a4 E0E7     		b	.L21
 296              	.LVL23:
 297              	.L22:
  41:Core/Src/serial.c ****             }
 298              		.loc 1 41 24 view .LVU83
 299 00a6 0020     		movs	r0, #0
 300              	.LVL24:
  41:Core/Src/serial.c ****             }
 301              		.loc 1 41 24 view .LVU84
 302 00a8 E0E7     		b	.L10
 303              	.L28:
 304 00aa 00BF     		.align	2
 305              	.L27:
 306 00ac 00000000 		.word	seekp
 307 00b0 00000000 		.word	message
 308 00b4 00000000 		.word	offset
 309 00b8 00000000 		.word	GAIN_F
 310              		.cfi_endproc
 311              	.LFE69:
 313              		.section	.text.UART_available,"ax",%progbits
 314              		.align	1
 315              		.global	UART_available
 316              		.syntax unified
 317              		.thumb
 318              		.thumb_func
ARM GAS  C:\Users\qwertym\AppData\Local\Temp\ccBzkxZC.s 			page 8


 320              	UART_available:
 321              	.LFB70:
  64:Core/Src/serial.c **** 
  65:Core/Src/serial.c **** /**
  66:Core/Src/serial.c ****  * @brief ‰ªéÁºìÂÜ≤Âå∫ËØªÂèñÂ≠óÁ¨¶‰∏≤
  67:Core/Src/serial.c ****  * @retval ÊòØÂê¶Â∑≤Ëá≥Â∞ëËØªÂÖ•‰∏ÄÊù°ÂÆåÊï¥ËØ≠Âè•
  68:Core/Src/serial.c ****  */
  69:Core/Src/serial.c **** uint8_t UART_available(void)
  70:Core/Src/serial.c **** {
 322              		.loc 1 70 1 is_stmt 1 view -0
 323              		.cfi_startproc
 324              		@ args = 0, pretend = 0, frame = 0
 325              		@ frame_needed = 0, uses_anonymous_args = 0
 326              		@ link register save eliminated.
  71:Core/Src/serial.c ****     return GAIN_F;
 327              		.loc 1 71 5 view .LVU86
  72:Core/Src/serial.c **** }
 328              		.loc 1 72 1 is_stmt 0 view .LVU87
 329 0000 014B     		ldr	r3, .L30
 330 0002 1878     		ldrb	r0, [r3]	@ zero_extendqisi2
 331 0004 7047     		bx	lr
 332              	.L31:
 333 0006 00BF     		.align	2
 334              	.L30:
 335 0008 00000000 		.word	GAIN_F
 336              		.cfi_endproc
 337              	.LFE70:
 339              		.global	__aeabi_d2iz
 340              		.global	__aeabi_i2d
 341              		.global	__aeabi_dsub
 342              		.global	__aeabi_dcmplt
 343              		.global	__aeabi_dmul
 344              		.section	.rodata.print_float.str1.4,"aMS",%progbits,1
 345              		.align	2
 346              	.LC0:
 347 0000 25642E25 		.ascii	"%d.%d%d%d%d%d%d \000"
 347      64256425 
 347      64256425 
 347      64256420 
 347      00
 348              		.section	.text.print_float,"ax",%progbits
 349              		.align	1
 350              		.global	print_float
 351              		.syntax unified
 352              		.thumb
 353              		.thumb_func
 355              	print_float:
 356              	.LVL25:
 357              	.LFB71:
  73:Core/Src/serial.c **** 
  74:Core/Src/serial.c **** /**
  75:Core/Src/serial.c ****  * @brief Áî±‰∫éÂ•áÊÄ™ÁöÑÂéüÂõ†ÔºåÁî®makefileÁîüÊàêÊó∂sprintfÊó†Ê≥ïÂ§ÑÁêÜÂ∞èÊï∞ÔºåkeilÊ≤°ÊúâËøô‰∏™È
  76:Core/Src/serial.c ****  */
  77:Core/Src/serial.c **** void print_float(double value)
  78:Core/Src/serial.c **** {
 358              		.loc 1 78 1 is_stmt 1 view -0
 359              		.cfi_startproc
ARM GAS  C:\Users\qwertym\AppData\Local\Temp\ccBzkxZC.s 			page 9


 360              		@ args = 0, pretend = 0, frame = 8
 361              		@ frame_needed = 0, uses_anonymous_args = 0
 362              		.loc 1 78 1 is_stmt 0 view .LVU89
 363 0000 2DE9F04F 		push	{r4, r5, r6, r7, r8, r9, r10, fp, lr}
 364              		.cfi_def_cfa_offset 36
 365              		.cfi_offset 4, -36
 366              		.cfi_offset 5, -32
 367              		.cfi_offset 6, -28
 368              		.cfi_offset 7, -24
 369              		.cfi_offset 8, -20
 370              		.cfi_offset 9, -16
 371              		.cfi_offset 10, -12
 372              		.cfi_offset 11, -8
 373              		.cfi_offset 14, -4
 374 0004 87B0     		sub	sp, sp, #28
 375              		.cfi_def_cfa_offset 64
 376 0006 0446     		mov	r4, r0
 377 0008 0D46     		mov	r5, r1
  79:Core/Src/serial.c ****     int z, tmp1, tmp2, tmp3, tmp4, tmp5, tmp6;
 378              		.loc 1 79 5 is_stmt 1 view .LVU90
  80:Core/Src/serial.c ****     z = (int)value;       // Êï¥Êï∞ÈÉ®ÂàÜ+Á¨¶Âè∑
 379              		.loc 1 80 5 view .LVU91
 380              		.loc 1 80 7 is_stmt 0 view .LVU92
 381 000a FFF7FEFF 		bl	__aeabi_d2iz
 382              	.LVL26:
 383              		.loc 1 80 7 view .LVU93
 384 000e 0590     		str	r0, [sp, #20]
 385              	.LVL27:
  81:Core/Src/serial.c ****     double f = value - z; // Â∞èÊï∞ÈÉ®ÂàÜ
 386              		.loc 1 81 5 is_stmt 1 view .LVU94
 387              		.loc 1 81 22 is_stmt 0 view .LVU95
 388 0010 FFF7FEFF 		bl	__aeabi_i2d
 389              	.LVL28:
 390              		.loc 1 81 22 view .LVU96
 391 0014 0246     		mov	r2, r0
 392 0016 0B46     		mov	r3, r1
 393              		.loc 1 81 12 view .LVU97
 394 0018 2046     		mov	r0, r4
 395 001a 2946     		mov	r1, r5
 396 001c FFF7FEFF 		bl	__aeabi_dsub
 397              	.LVL29:
 398 0020 0446     		mov	r4, r0
 399 0022 0D46     		mov	r5, r1
 400              	.LVL30:
  82:Core/Src/serial.c ****     f = f < 0 ? -f : f;   // abs
 401              		.loc 1 82 5 is_stmt 1 view .LVU98
 402              		.loc 1 82 20 is_stmt 0 view .LVU99
 403 0024 0022     		movs	r2, #0
 404 0026 0023     		movs	r3, #0
 405 0028 FFF7FEFF 		bl	__aeabi_dcmplt
 406              	.LVL31:
 407 002c 0028     		cmp	r0, #0
 408 002e 7DD1     		bne	.L37
 409              	.L33:
  83:Core/Src/serial.c ****     tmp1 = (int)(f * 10) % 10;
 410              		.loc 1 83 5 is_stmt 1 discriminator 4 view .LVU100
 411              		.loc 1 83 20 is_stmt 0 discriminator 4 view .LVU101
ARM GAS  C:\Users\qwertym\AppData\Local\Temp\ccBzkxZC.s 			page 10


 412 0030 0022     		movs	r2, #0
 413 0032 474B     		ldr	r3, .L38+24
 414 0034 2046     		mov	r0, r4
 415 0036 2946     		mov	r1, r5
 416 0038 FFF7FEFF 		bl	__aeabi_dmul
 417              	.LVL32:
 418              		.loc 1 83 12 discriminator 4 view .LVU102
 419 003c FFF7FEFF 		bl	__aeabi_d2iz
 420              	.LVL33:
 421              		.loc 1 83 10 discriminator 4 view .LVU103
 422 0040 DFF810B1 		ldr	fp, .L38+28
 423 0044 8BFB0023 		smull	r2, r3, fp, r0
 424 0048 C617     		asrs	r6, r0, #31
 425 004a C6EBA306 		rsb	r6, r6, r3, asr #2
 426 004e 06EB8606 		add	r6, r6, r6, lsl #2
 427 0052 A0EB4606 		sub	r6, r0, r6, lsl #1
 428              	.LVL34:
  84:Core/Src/serial.c ****     tmp2 = (int)(f * 100) % 10;
 429              		.loc 1 84 5 is_stmt 1 discriminator 4 view .LVU104
 430              		.loc 1 84 20 is_stmt 0 discriminator 4 view .LVU105
 431 0056 0022     		movs	r2, #0
 432 0058 3F4B     		ldr	r3, .L38+32
 433 005a 2046     		mov	r0, r4
 434 005c 2946     		mov	r1, r5
 435 005e FFF7FEFF 		bl	__aeabi_dmul
 436              	.LVL35:
 437              		.loc 1 84 12 discriminator 4 view .LVU106
 438 0062 FFF7FEFF 		bl	__aeabi_d2iz
 439              	.LVL36:
 440              		.loc 1 84 10 discriminator 4 view .LVU107
 441 0066 8BFB0023 		smull	r2, r3, fp, r0
 442 006a C717     		asrs	r7, r0, #31
 443 006c C7EBA307 		rsb	r7, r7, r3, asr #2
 444 0070 07EB8707 		add	r7, r7, r7, lsl #2
 445 0074 A0EB4707 		sub	r7, r0, r7, lsl #1
 446              	.LVL37:
  85:Core/Src/serial.c ****     tmp3 = (int)(f * 1000) % 10;
 447              		.loc 1 85 5 is_stmt 1 discriminator 4 view .LVU108
 448              		.loc 1 85 20 is_stmt 0 discriminator 4 view .LVU109
 449 0078 0022     		movs	r2, #0
 450 007a 384B     		ldr	r3, .L38+36
 451 007c 2046     		mov	r0, r4
 452 007e 2946     		mov	r1, r5
 453 0080 FFF7FEFF 		bl	__aeabi_dmul
 454              	.LVL38:
 455              		.loc 1 85 12 discriminator 4 view .LVU110
 456 0084 FFF7FEFF 		bl	__aeabi_d2iz
 457              	.LVL39:
 458              		.loc 1 85 10 discriminator 4 view .LVU111
 459 0088 8BFB0023 		smull	r2, r3, fp, r0
 460 008c 4FEAE078 		asr	r8, r0, #31
 461 0090 C8EBA308 		rsb	r8, r8, r3, asr #2
 462 0094 08EB8808 		add	r8, r8, r8, lsl #2
 463 0098 A0EB4808 		sub	r8, r0, r8, lsl #1
 464              	.LVL40:
  86:Core/Src/serial.c ****     tmp4 = (int)(f * 10000) % 10;
 465              		.loc 1 86 5 is_stmt 1 discriminator 4 view .LVU112
ARM GAS  C:\Users\qwertym\AppData\Local\Temp\ccBzkxZC.s 			page 11


 466              		.loc 1 86 20 is_stmt 0 discriminator 4 view .LVU113
 467 009c 26A3     		adr	r3, .L38
 468 009e D3E90023 		ldrd	r2, [r3]
 469 00a2 2046     		mov	r0, r4
 470 00a4 2946     		mov	r1, r5
 471 00a6 FFF7FEFF 		bl	__aeabi_dmul
 472              	.LVL41:
 473              		.loc 1 86 12 discriminator 4 view .LVU114
 474 00aa FFF7FEFF 		bl	__aeabi_d2iz
 475              	.LVL42:
 476              		.loc 1 86 10 discriminator 4 view .LVU115
 477 00ae 8BFB0023 		smull	r2, r3, fp, r0
 478 00b2 4FEAE079 		asr	r9, r0, #31
 479 00b6 C9EBA309 		rsb	r9, r9, r3, asr #2
 480 00ba 09EB8909 		add	r9, r9, r9, lsl #2
 481 00be A0EB4909 		sub	r9, r0, r9, lsl #1
 482              	.LVL43:
  87:Core/Src/serial.c ****     tmp5 = (int)(f * 100000) % 10;
 483              		.loc 1 87 5 is_stmt 1 discriminator 4 view .LVU116
 484              		.loc 1 87 20 is_stmt 0 discriminator 4 view .LVU117
 485 00c2 1FA3     		adr	r3, .L38+8
 486 00c4 D3E90023 		ldrd	r2, [r3]
 487 00c8 2046     		mov	r0, r4
 488 00ca 2946     		mov	r1, r5
 489 00cc FFF7FEFF 		bl	__aeabi_dmul
 490              	.LVL44:
 491              		.loc 1 87 12 discriminator 4 view .LVU118
 492 00d0 FFF7FEFF 		bl	__aeabi_d2iz
 493              	.LVL45:
 494              		.loc 1 87 10 discriminator 4 view .LVU119
 495 00d4 8BFB0023 		smull	r2, r3, fp, r0
 496 00d8 4FEAE07A 		asr	r10, r0, #31
 497 00dc CAEBA30A 		rsb	r10, r10, r3, asr #2
 498 00e0 0AEB8A0A 		add	r10, r10, r10, lsl #2
 499 00e4 A0EB4A0A 		sub	r10, r0, r10, lsl #1
 500              	.LVL46:
  88:Core/Src/serial.c ****     tmp6 = (int)(f * 1000000) % 10;
 501              		.loc 1 88 5 is_stmt 1 discriminator 4 view .LVU120
 502              		.loc 1 88 20 is_stmt 0 discriminator 4 view .LVU121
 503 00e8 17A3     		adr	r3, .L38+16
 504 00ea D3E90023 		ldrd	r2, [r3]
 505 00ee 2046     		mov	r0, r4
 506 00f0 2946     		mov	r1, r5
 507 00f2 FFF7FEFF 		bl	__aeabi_dmul
 508              	.LVL47:
 509              		.loc 1 88 12 discriminator 4 view .LVU122
 510 00f6 FFF7FEFF 		bl	__aeabi_d2iz
 511              	.LVL48:
 512              		.loc 1 88 10 discriminator 4 view .LVU123
 513 00fa 8BFB003B 		smull	r3, fp, fp, r0
 514 00fe C317     		asrs	r3, r0, #31
 515 0100 C3EBAB03 		rsb	r3, r3, fp, asr #2
 516 0104 03EB8303 		add	r3, r3, r3, lsl #2
 517 0108 A0EB4303 		sub	r3, r0, r3, lsl #1
 518              	.LVL49:
  89:Core/Src/serial.c ****     printf("%d.%d%d%d%d%d%d ", z, tmp1, tmp2, tmp3, tmp4, tmp5, tmp6);
 519              		.loc 1 89 5 is_stmt 1 discriminator 4 view .LVU124
ARM GAS  C:\Users\qwertym\AppData\Local\Temp\ccBzkxZC.s 			page 12


 520 010c 0393     		str	r3, [sp, #12]
 521 010e CDF808A0 		str	r10, [sp, #8]
 522 0112 CDF80490 		str	r9, [sp, #4]
 523 0116 CDF80080 		str	r8, [sp]
 524 011a 3B46     		mov	r3, r7
 525              	.LVL50:
 526              		.loc 1 89 5 is_stmt 0 discriminator 4 view .LVU125
 527 011c 3246     		mov	r2, r6
 528 011e 0599     		ldr	r1, [sp, #20]
 529 0120 0F48     		ldr	r0, .L38+40
 530 0122 FFF7FEFF 		bl	printf
 531              	.LVL51:
  90:Core/Src/serial.c **** }
 532              		.loc 1 90 1 discriminator 4 view .LVU126
 533 0126 07B0     		add	sp, sp, #28
 534              		.cfi_remember_state
 535              		.cfi_def_cfa_offset 36
 536              		@ sp needed
 537 0128 BDE8F08F 		pop	{r4, r5, r6, r7, r8, r9, r10, fp, pc}
 538              	.LVL52:
 539              	.L37:
 540              		.cfi_restore_state
  82:Core/Src/serial.c ****     tmp1 = (int)(f * 10) % 10;
 541              		.loc 1 82 20 discriminator 1 view .LVU127
 542 012c 05F10043 		add	r3, r5, #-2147483648
 543 0130 1D46     		mov	r5, r3
 544 0132 7DE7     		b	.L33
 545              	.L39:
 546 0134 AFF30080 		.align	3
 547              	.L38:
 548 0138 00000000 		.word	0
 549 013c 0088C340 		.word	1086556160
 550 0140 00000000 		.word	0
 551 0144 006AF840 		.word	1090021888
 552 0148 00000000 		.word	0
 553 014c 80842E41 		.word	1093567616
 554 0150 00002440 		.word	1076101120
 555 0154 67666666 		.word	1717986919
 556 0158 00005940 		.word	1079574528
 557 015c 00408F40 		.word	1083129856
 558 0160 00000000 		.word	.LC0
 559              		.cfi_endproc
 560              	.LFE71:
 562              		.section	.text.print_debug,"ax",%progbits
 563              		.align	1
 564              		.global	print_debug
 565              		.syntax unified
 566              		.thumb
 567              		.thumb_func
 569              	print_debug:
 570              	.LVL53:
 571              	.LFB72:
  91:Core/Src/serial.c **** 
  92:Core/Src/serial.c **** /**
  93:Core/Src/serial.c ****  * @brief ËæìÂá∫ËØ¶ÁªÜÊó•ÂøóÔºåÁî±‰∫éprintfÊó†Ê≥ïÂ§ÑÁêÜÂ∞èÊï∞ÔºåÊïÖÁî®Ê≠§‰ª£Êõø
  94:Core/Src/serial.c ****  */
  95:Core/Src/serial.c **** void print_debug(char *str, double a, double b, double c, char *end)
ARM GAS  C:\Users\qwertym\AppData\Local\Temp\ccBzkxZC.s 			page 13


  96:Core/Src/serial.c **** {
 572              		.loc 1 96 1 is_stmt 1 view -0
 573              		.cfi_startproc
 574              		@ args = 20, pretend = 0, frame = 0
 575              		@ frame_needed = 0, uses_anonymous_args = 0
 576              		@ link register save eliminated.
  97:Core/Src/serial.c ****     if (CURRENT_LEVEL <= DEBUG_LEVEL)
 577              		.loc 1 97 5 view .LVU129
  98:Core/Src/serial.c ****     {
  99:Core/Src/serial.c ****         USART_OUT;
 100:Core/Src/serial.c ****         printf("[debug] %s", str);
 101:Core/Src/serial.c ****         print_float(a);
 102:Core/Src/serial.c ****         print_float(b);
 103:Core/Src/serial.c ****         print_float(c);
 104:Core/Src/serial.c ****         printf("%s", end);
 105:Core/Src/serial.c ****         USART_IN;
 106:Core/Src/serial.c ****     }
 107:Core/Src/serial.c **** }
 578              		.loc 1 107 1 is_stmt 0 view .LVU130
 579 0000 7047     		bx	lr
 580              		.cfi_endproc
 581              	.LFE72:
 583              		.section	.text.print_info,"ax",%progbits
 584              		.align	1
 585              		.global	print_info
 586              		.syntax unified
 587              		.thumb
 588              		.thumb_func
 590              	print_info:
 591              	.LVL54:
 592              	.LFB73:
 108:Core/Src/serial.c **** 
 109:Core/Src/serial.c **** /**
 110:Core/Src/serial.c ****  * @brief ËæìÂá∫Êó•ÂøóÔºåÁî±‰∫éprintfÊó†Ê≥ïÂ§ÑÁêÜÂ∞èÊï∞ÔºåÊïÖÁî®Ê≠§‰ª£Êõø
 111:Core/Src/serial.c ****  */
 112:Core/Src/serial.c **** void print_info(char *str, double a, double b, double c, char *end)
 113:Core/Src/serial.c **** {
 593              		.loc 1 113 1 is_stmt 1 view -0
 594              		.cfi_startproc
 595              		@ args = 20, pretend = 0, frame = 0
 596              		@ frame_needed = 0, uses_anonymous_args = 0
 597              		@ link register save eliminated.
 114:Core/Src/serial.c ****     if (CURRENT_LEVEL <= INFO_LEVEL)
 598              		.loc 1 114 5 view .LVU132
 115:Core/Src/serial.c ****     {
 116:Core/Src/serial.c ****         USART_OUT;
 117:Core/Src/serial.c ****         printf("[info] %s", str);
 118:Core/Src/serial.c ****         print_float(a);
 119:Core/Src/serial.c ****         print_float(b);
 120:Core/Src/serial.c ****         print_float(c);
 121:Core/Src/serial.c ****         printf("%s", end);
 122:Core/Src/serial.c ****         USART_IN;
 123:Core/Src/serial.c ****     }
 124:Core/Src/serial.c **** }
 599              		.loc 1 124 1 is_stmt 0 view .LVU133
 600 0000 7047     		bx	lr
 601              		.cfi_endproc
ARM GAS  C:\Users\qwertym\AppData\Local\Temp\ccBzkxZC.s 			page 14


 602              	.LFE73:
 604              		.section	.rodata.print_release.str1.4,"aMS",%progbits,1
 605              		.align	2
 606              	.LC1:
 607 0000 257300   		.ascii	"%s\000"
 608              		.section	.text.print_release,"ax",%progbits
 609              		.align	1
 610              		.global	print_release
 611              		.syntax unified
 612              		.thumb
 613              		.thumb_func
 615              	print_release:
 616              	.LVL55:
 617              	.LFB74:
 125:Core/Src/serial.c **** 
 126:Core/Src/serial.c **** /**
 127:Core/Src/serial.c ****  * @brief ËøîÂõûÂëΩ‰ª§ÁªìÊûúÔºåÁî±‰∫éprintfÊó†Ê≥ïÂ§ÑÁêÜÂ∞èÊï∞ÔºåÊïÖÁî®Ê≠§‰ª£Êõø
 128:Core/Src/serial.c ****  */
 129:Core/Src/serial.c **** void print_release(char *str, double a, double b, double c, char *end)
 130:Core/Src/serial.c **** {
 618              		.loc 1 130 1 is_stmt 1 view -0
 619              		.cfi_startproc
 620              		@ args = 20, pretend = 0, frame = 0
 621              		@ frame_needed = 0, uses_anonymous_args = 0
 622              		.loc 1 130 1 is_stmt 0 view .LVU135
 623 0000 2DE9F041 		push	{r4, r5, r6, r7, r8, lr}
 624              		.cfi_def_cfa_offset 24
 625              		.cfi_offset 4, -24
 626              		.cfi_offset 5, -20
 627              		.cfi_offset 6, -16
 628              		.cfi_offset 7, -12
 629              		.cfi_offset 8, -8
 630              		.cfi_offset 14, -4
 631 0004 0546     		mov	r5, r0
 632 0006 1646     		mov	r6, r2
 633 0008 1F46     		mov	r7, r3
 131:Core/Src/serial.c ****     if (CURRENT_LEVEL == RELEASE_LEVEL)
 634              		.loc 1 131 5 is_stmt 1 view .LVU136
 132:Core/Src/serial.c ****     {
 133:Core/Src/serial.c ****         m_printf("%s", str);
 635              		.loc 1 133 9 view .LVU137
 636              		.loc 1 133 9 view .LVU138
 637 000a 194C     		ldr	r4, .L44
 638 000c 0122     		movs	r2, #1
 639              	.LVL56:
 640              		.loc 1 133 9 is_stmt 0 view .LVU139
 641 000e 1021     		movs	r1, #16
 642 0010 2046     		mov	r0, r4
 643              	.LVL57:
 644              		.loc 1 133 9 view .LVU140
 645 0012 FFF7FEFF 		bl	HAL_GPIO_WritePin
 646              	.LVL58:
 647              		.loc 1 133 9 is_stmt 1 view .LVU141
 648 0016 DFF85C80 		ldr	r8, .L44+4
 649 001a 2946     		mov	r1, r5
 650 001c 4046     		mov	r0, r8
 651 001e FFF7FEFF 		bl	printf
ARM GAS  C:\Users\qwertym\AppData\Local\Temp\ccBzkxZC.s 			page 15


 652              	.LVL59:
 653              		.loc 1 133 9 view .LVU142
 654 0022 3220     		movs	r0, #50
 655 0024 FFF7FEFF 		bl	HAL_Delay
 656              	.LVL60:
 657              		.loc 1 133 9 view .LVU143
 658 0028 0022     		movs	r2, #0
 659 002a 1021     		movs	r1, #16
 660 002c 2046     		mov	r0, r4
 661 002e FFF7FEFF 		bl	HAL_GPIO_WritePin
 662              	.LVL61:
 663              		.loc 1 133 9 view .LVU144
 134:Core/Src/serial.c ****         print_float(a);
 664              		.loc 1 134 9 view .LVU145
 665 0032 3046     		mov	r0, r6
 666 0034 3946     		mov	r1, r7
 667 0036 FFF7FEFF 		bl	print_float
 668              	.LVL62:
 135:Core/Src/serial.c ****         print_float(b);
 669              		.loc 1 135 9 view .LVU146
 670 003a DDE90601 		ldrd	r0, [sp, #24]
 671 003e FFF7FEFF 		bl	print_float
 672              	.LVL63:
 136:Core/Src/serial.c ****         print_float(c);
 673              		.loc 1 136 9 view .LVU147
 674 0042 DDE90801 		ldrd	r0, [sp, #32]
 675 0046 FFF7FEFF 		bl	print_float
 676              	.LVL64:
 137:Core/Src/serial.c ****         m_printf("%s", end);
 677              		.loc 1 137 9 view .LVU148
 678              		.loc 1 137 9 view .LVU149
 679 004a 0122     		movs	r2, #1
 680 004c 1021     		movs	r1, #16
 681 004e 2046     		mov	r0, r4
 682 0050 FFF7FEFF 		bl	HAL_GPIO_WritePin
 683              	.LVL65:
 684              		.loc 1 137 9 view .LVU150
 685 0054 0A99     		ldr	r1, [sp, #40]
 686 0056 4046     		mov	r0, r8
 687 0058 FFF7FEFF 		bl	printf
 688              	.LVL66:
 689              		.loc 1 137 9 view .LVU151
 690 005c 3220     		movs	r0, #50
 691 005e FFF7FEFF 		bl	HAL_Delay
 692              	.LVL67:
 693              		.loc 1 137 9 view .LVU152
 694 0062 0022     		movs	r2, #0
 695 0064 1021     		movs	r1, #16
 696 0066 2046     		mov	r0, r4
 697 0068 FFF7FEFF 		bl	HAL_GPIO_WritePin
 698              	.LVL68:
 699              		.loc 1 137 9 view .LVU153
 138:Core/Src/serial.c ****     }
 139:Core/Src/serial.c **** }
 700              		.loc 1 139 1 is_stmt 0 view .LVU154
 701 006c BDE8F081 		pop	{r4, r5, r6, r7, r8, pc}
 702              	.LVL69:
ARM GAS  C:\Users\qwertym\AppData\Local\Temp\ccBzkxZC.s 			page 16


 703              	.L45:
 704              		.loc 1 139 1 view .LVU155
 705              		.align	2
 706              	.L44:
 707 0070 00080140 		.word	1073809408
 708 0074 00000000 		.word	.LC1
 709              		.cfi_endproc
 710              	.LFE74:
 712              		.global	seekp
 713              		.section	.bss.seekp,"aw",%nobits
 716              	seekp:
 717 0000 00       		.space	1
 718              		.global	GAIN_F
 719              		.section	.bss.GAIN_F,"aw",%nobits
 722              	GAIN_F:
 723 0000 00       		.space	1
 724              		.global	RX_Flag
 725              		.section	.bss.RX_Flag,"aw",%nobits
 728              	RX_Flag:
 729 0000 00       		.space	1
 730              		.global	mesg
 731              		.section	.bss.mesg,"aw",%nobits
 734              	mesg:
 735 0000 00       		.space	1
 736              		.global	offset
 737              		.section	.bss.offset,"aw",%nobits
 740              	offset:
 741 0000 00       		.space	1
 742              		.global	message
 743              		.section	.bss.message,"aw",%nobits
 744              		.align	2
 747              	message:
 748 0000 00000000 		.space	200
 748      00000000 
 748      00000000 
 748      00000000 
 748      00000000 
 749              		.text
 750              	.Letext0:
 751              		.file 2 "d:\\coding\\stc\\12.2 mpacbti-bet1\\arm-none-eabi\\include\\machine\\_default_types.h"
 752              		.file 3 "d:\\coding\\stc\\12.2 mpacbti-bet1\\arm-none-eabi\\include\\sys\\_stdint.h"
 753              		.file 4 "Drivers/CMSIS/Device/ST/STM32F1xx/Include/stm32f103xb.h"
 754              		.file 5 "d:\\coding\\stc\\12.2 mpacbti-bet1\\lib\\gcc\\arm-none-eabi\\12.2.0\\include\\stddef.h"
 755              		.file 6 "Drivers/STM32F1xx_HAL_Driver/Inc/stm32f1xx_hal_def.h"
 756              		.file 7 "Drivers/STM32F1xx_HAL_Driver/Inc/stm32f1xx_hal_gpio.h"
 757              		.file 8 "Drivers/STM32F1xx_HAL_Driver/Inc/stm32f1xx_hal_dma.h"
 758              		.file 9 "Drivers/STM32F1xx_HAL_Driver/Inc/stm32f1xx_hal_uart.h"
 759              		.file 10 "Drivers/STM32F1xx_HAL_Driver/Inc/stm32f1xx_hal.h"
 760              		.file 11 "d:\\coding\\stc\\12.2 mpacbti-bet1\\arm-none-eabi\\include\\stdio.h"
 761              		.file 12 "d:\\coding\\stc\\12.2 mpacbti-bet1\\arm-none-eabi\\include\\string.h"
 762              		.file 13 "Core/Inc/serial.h"
 763              		.file 14 "<built-in>"
ARM GAS  C:\Users\qwertym\AppData\Local\Temp\ccBzkxZC.s 			page 17


DEFINED SYMBOLS
                            *ABS*:00000000 serial.c
C:\Users\qwertym\AppData\Local\Temp\ccBzkxZC.s:19     .text.HAL_UART_RxCpltCallback:00000000 $t
C:\Users\qwertym\AppData\Local\Temp\ccBzkxZC.s:25     .text.HAL_UART_RxCpltCallback:00000000 HAL_UART_RxCpltCallback
C:\Users\qwertym\AppData\Local\Temp\ccBzkxZC.s:102    .text.HAL_UART_RxCpltCallback:0000004c $d
C:\Users\qwertym\AppData\Local\Temp\ccBzkxZC.s:740    .bss.offset:00000000 offset
C:\Users\qwertym\AppData\Local\Temp\ccBzkxZC.s:734    .bss.mesg:00000000 mesg
C:\Users\qwertym\AppData\Local\Temp\ccBzkxZC.s:747    .bss.message:00000000 message
C:\Users\qwertym\AppData\Local\Temp\ccBzkxZC.s:728    .bss.RX_Flag:00000000 RX_Flag
C:\Users\qwertym\AppData\Local\Temp\ccBzkxZC.s:722    .bss.GAIN_F:00000000 GAIN_F
C:\Users\qwertym\AppData\Local\Temp\ccBzkxZC.s:111    .text.readStr:00000000 $t
C:\Users\qwertym\AppData\Local\Temp\ccBzkxZC.s:117    .text.readStr:00000000 readStr
C:\Users\qwertym\AppData\Local\Temp\ccBzkxZC.s:306    .text.readStr:000000ac $d
C:\Users\qwertym\AppData\Local\Temp\ccBzkxZC.s:716    .bss.seekp:00000000 seekp
C:\Users\qwertym\AppData\Local\Temp\ccBzkxZC.s:314    .text.UART_available:00000000 $t
C:\Users\qwertym\AppData\Local\Temp\ccBzkxZC.s:320    .text.UART_available:00000000 UART_available
C:\Users\qwertym\AppData\Local\Temp\ccBzkxZC.s:335    .text.UART_available:00000008 $d
C:\Users\qwertym\AppData\Local\Temp\ccBzkxZC.s:345    .rodata.print_float.str1.4:00000000 $d
C:\Users\qwertym\AppData\Local\Temp\ccBzkxZC.s:349    .text.print_float:00000000 $t
C:\Users\qwertym\AppData\Local\Temp\ccBzkxZC.s:355    .text.print_float:00000000 print_float
C:\Users\qwertym\AppData\Local\Temp\ccBzkxZC.s:548    .text.print_float:00000138 $d
C:\Users\qwertym\AppData\Local\Temp\ccBzkxZC.s:563    .text.print_debug:00000000 $t
C:\Users\qwertym\AppData\Local\Temp\ccBzkxZC.s:569    .text.print_debug:00000000 print_debug
C:\Users\qwertym\AppData\Local\Temp\ccBzkxZC.s:584    .text.print_info:00000000 $t
C:\Users\qwertym\AppData\Local\Temp\ccBzkxZC.s:590    .text.print_info:00000000 print_info
C:\Users\qwertym\AppData\Local\Temp\ccBzkxZC.s:605    .rodata.print_release.str1.4:00000000 $d
C:\Users\qwertym\AppData\Local\Temp\ccBzkxZC.s:609    .text.print_release:00000000 $t
C:\Users\qwertym\AppData\Local\Temp\ccBzkxZC.s:615    .text.print_release:00000000 print_release
C:\Users\qwertym\AppData\Local\Temp\ccBzkxZC.s:707    .text.print_release:00000070 $d
C:\Users\qwertym\AppData\Local\Temp\ccBzkxZC.s:717    .bss.seekp:00000000 $d
C:\Users\qwertym\AppData\Local\Temp\ccBzkxZC.s:723    .bss.GAIN_F:00000000 $d
C:\Users\qwertym\AppData\Local\Temp\ccBzkxZC.s:729    .bss.RX_Flag:00000000 $d
C:\Users\qwertym\AppData\Local\Temp\ccBzkxZC.s:735    .bss.mesg:00000000 $d
C:\Users\qwertym\AppData\Local\Temp\ccBzkxZC.s:741    .bss.offset:00000000 $d
C:\Users\qwertym\AppData\Local\Temp\ccBzkxZC.s:744    .bss.message:00000000 $d

UNDEFINED SYMBOLS
HAL_UART_Receive_IT
memcpy
__aeabi_d2iz
__aeabi_i2d
__aeabi_dsub
__aeabi_dcmplt
__aeabi_dmul
printf
HAL_GPIO_WritePin
HAL_Delay
