ARM GAS  C:\Users\qwertym\AppData\Local\Temp\ccUhqC3g.s 			page 1


   1              		.cpu cortex-m3
   2              		.arch armv7-m
   3              		.fpu softvfp
   4              		.eabi_attribute 20, 1
   5              		.eabi_attribute 21, 1
   6              		.eabi_attribute 23, 3
   7              		.eabi_attribute 24, 1
   8              		.eabi_attribute 25, 1
   9              		.eabi_attribute 26, 1
  10              		.eabi_attribute 30, 1
  11              		.eabi_attribute 34, 1
  12              		.eabi_attribute 18, 4
  13              		.file	"serial.c"
  14              		.text
  15              	.Ltext0:
  16              		.cfi_sections	.debug_frame
  17              		.file 1 "Core/Src/serial.c"
  18              		.section	.text.HAL_UART_RxCpltCallback,"ax",%progbits
  19              		.align	1
  20              		.global	HAL_UART_RxCpltCallback
  21              		.syntax unified
  22              		.thumb
  23              		.thumb_func
  25              	HAL_UART_RxCpltCallback:
  26              	.LVL0:
  27              	.LFB68:
   1:Core/Src/serial.c **** #include "serial.h"
   2:Core/Src/serial.c **** 
   3:Core/Src/serial.c **** uint8_t message[200]; // Êé•Êî∂Â≠óÁ¨¶‰∏≤ÁéØÂΩ¢ÁºìÂÜ≤Âå∫
   4:Core/Src/serial.c **** uint8_t offset;       // Êé•Êî∂Â≠óÁ¨¶‰∏≤ÁºìÂÜ≤Âå∫ÁöÑ‰∏ãÊ†áÂèäÂ§ßÂ∞è
   5:Core/Src/serial.c **** uint8_t RX_Flag;      // ÂèëÁîü‰∏≠Êñ≠ÁöÑÊ†áÂøó
   6:Core/Src/serial.c **** uint8_t GAIN_F;       // Êé•ÂèóÂÆåÊï¥ËØ≠Âè•ÁöÑÊ†áÂøó
   7:Core/Src/serial.c **** uint8_t seekp = 0;
   8:Core/Src/serial.c **** 
   9:Core/Src/serial.c **** uint8_t recvMsg; // Áî®‰∫é‰∏≠Êñ≠Êó∂ÔºåÊé•Êî∂Âçï‰∏™Â≠óÁ¨¶
  10:Core/Src/serial.c **** 
  11:Core/Src/serial.c **** /**
  12:Core/Src/serial.c ****  * @brief ÈáçÂÜô‰∏≤Âè£‰∏≠Êñ≠
  13:Core/Src/serial.c ****  */
  14:Core/Src/serial.c **** void HAL_UART_RxCpltCallback(UART_HandleTypeDef *huart)
  15:Core/Src/serial.c **** {
  28              		.loc 1 15 1 view -0
  29              		.cfi_startproc
  30              		@ args = 0, pretend = 0, frame = 0
  31              		@ frame_needed = 0, uses_anonymous_args = 0
  32              		.loc 1 15 1 is_stmt 0 view .LVU1
  33 0000 08B5     		push	{r3, lr}
  34              		.cfi_def_cfa_offset 8
  35              		.cfi_offset 3, -8
  36              		.cfi_offset 14, -4
  16:Core/Src/serial.c ****     if (offset == 200)
  37              		.loc 1 16 5 is_stmt 1 view .LVU2
  38              		.loc 1 16 16 is_stmt 0 view .LVU3
  39 0002 124B     		ldr	r3, .L8
  40 0004 1B78     		ldrb	r3, [r3]	@ zero_extendqisi2
  41              		.loc 1 16 8 view .LVU4
  42 0006 C82B     		cmp	r3, #200
ARM GAS  C:\Users\qwertym\AppData\Local\Temp\ccUhqC3g.s 			page 2


  43 0008 19D0     		beq	.L6
  44              	.L2:
  17:Core/Src/serial.c ****         offset = 0;
  18:Core/Src/serial.c ****     if (recvMsg != '\r' && recvMsg != '\n' && recvMsg != 255) // ÂøΩÁï•Ëøô‰∫õÂ≠óÁ¨¶,ÂèçÊ≠£Êú¨Êù•‰πü
  45              		.loc 1 18 5 is_stmt 1 view .LVU5
  46              		.loc 1 18 17 is_stmt 0 view .LVU6
  47 000a 114B     		ldr	r3, .L8+4
  48 000c 1B78     		ldrb	r3, [r3]	@ zero_extendqisi2
  49              		.loc 1 18 8 view .LVU7
  50 000e 0D2B     		cmp	r3, #13
  51 0010 0BD0     		beq	.L3
  52              		.loc 1 18 25 discriminator 1 view .LVU8
  53 0012 0A2B     		cmp	r3, #10
  54 0014 09D0     		beq	.L3
  55              		.loc 1 18 44 discriminator 2 view .LVU9
  56 0016 FF2B     		cmp	r3, #255
  57 0018 07D0     		beq	.L3
  19:Core/Src/serial.c ****         message[offset++] = recvMsg;
  58              		.loc 1 19 9 is_stmt 1 view .LVU10
  59              		.loc 1 19 23 is_stmt 0 view .LVU11
  60 001a 0C49     		ldr	r1, .L8
  61 001c 0A78     		ldrb	r2, [r1]	@ zero_extendqisi2
  62 001e 02F1010C 		add	ip, r2, #1
  63 0022 81F800C0 		strb	ip, [r1]
  64              		.loc 1 19 27 view .LVU12
  65 0026 0B49     		ldr	r1, .L8+8
  66 0028 8B54     		strb	r3, [r1, r2]
  67              	.L3:
  20:Core/Src/serial.c ****     RX_Flag = 1;
  68              		.loc 1 20 5 is_stmt 1 view .LVU13
  69              		.loc 1 20 13 is_stmt 0 view .LVU14
  70 002a 0B4A     		ldr	r2, .L8+12
  71 002c 0121     		movs	r1, #1
  72 002e 1170     		strb	r1, [r2]
  21:Core/Src/serial.c ****     if (recvMsg == ';') // ËØªÂà∞;ËØ¥ÊòéÂ∑≤Âà∞ËææÂÆåÊï¥ËØ≠Âè•ÁªìÂ∞æ
  73              		.loc 1 21 5 is_stmt 1 view .LVU15
  74              		.loc 1 21 8 is_stmt 0 view .LVU16
  75 0030 3B2B     		cmp	r3, #59
  76 0032 08D0     		beq	.L7
  77              	.L4:
  22:Core/Src/serial.c ****         GAIN_F = 1;
  23:Core/Src/serial.c ****     HAL_UART_Receive_IT(huart, (uint8_t *)&recvMsg, 1);
  78              		.loc 1 23 5 is_stmt 1 view .LVU17
  79 0034 0122     		movs	r2, #1
  80 0036 0649     		ldr	r1, .L8+4
  81 0038 FFF7FEFF 		bl	HAL_UART_Receive_IT
  82              	.LVL1:
  24:Core/Src/serial.c **** }
  83              		.loc 1 24 1 is_stmt 0 view .LVU18
  84 003c 08BD     		pop	{r3, pc}
  85              	.LVL2:
  86              	.L6:
  17:Core/Src/serial.c ****     if (recvMsg != '\r' && recvMsg != '\n' && recvMsg != 255) // ÂøΩÁï•Ëøô‰∫õÂ≠óÁ¨¶,ÂèçÊ≠£Êú¨Êù•‰πü
  87              		.loc 1 17 9 is_stmt 1 view .LVU19
  17:Core/Src/serial.c ****     if (recvMsg != '\r' && recvMsg != '\n' && recvMsg != 255) // ÂøΩÁï•Ëøô‰∫õÂ≠óÁ¨¶,ÂèçÊ≠£Êú¨Êù•‰πü
  88              		.loc 1 17 16 is_stmt 0 view .LVU20
  89 003e 034B     		ldr	r3, .L8
ARM GAS  C:\Users\qwertym\AppData\Local\Temp\ccUhqC3g.s 			page 3


  90 0040 0022     		movs	r2, #0
  91 0042 1A70     		strb	r2, [r3]
  92 0044 E1E7     		b	.L2
  93              	.L7:
  22:Core/Src/serial.c ****         GAIN_F = 1;
  94              		.loc 1 22 9 is_stmt 1 view .LVU21
  22:Core/Src/serial.c ****         GAIN_F = 1;
  95              		.loc 1 22 16 is_stmt 0 view .LVU22
  96 0046 054B     		ldr	r3, .L8+16
  97 0048 1970     		strb	r1, [r3]
  98 004a F3E7     		b	.L4
  99              	.L9:
 100              		.align	2
 101              	.L8:
 102 004c 00000000 		.word	offset
 103 0050 00000000 		.word	recvMsg
 104 0054 00000000 		.word	message
 105 0058 00000000 		.word	RX_Flag
 106 005c 00000000 		.word	GAIN_F
 107              		.cfi_endproc
 108              	.LFE68:
 110              		.section	.text.readStr,"ax",%progbits
 111              		.align	1
 112              		.global	readStr
 113              		.syntax unified
 114              		.thumb
 115              		.thumb_func
 117              	readStr:
 118              	.LVL3:
 119              	.LFB69:
  25:Core/Src/serial.c **** /**
  26:Core/Src/serial.c ****  * @brief ‰ªéÁºìÂÜ≤Âå∫ËØªÂèñÂ≠óÁ¨¶‰∏≤
  27:Core/Src/serial.c ****  * @param buf Êé•Êî∂ÁöÑÂ≠óÁ¨¶‰∏≤
  28:Core/Src/serial.c ****  * @retval ËØªÂèñÁöÑÂ≠óÁ¨¶‰∏≤ÈïøÂ∫¶
  29:Core/Src/serial.c ****  */
  30:Core/Src/serial.c **** int readStr(uint8_t *buf)
  31:Core/Src/serial.c **** {
 120              		.loc 1 31 1 is_stmt 1 view -0
 121              		.cfi_startproc
 122              		@ args = 0, pretend = 0, frame = 0
 123              		@ frame_needed = 0, uses_anonymous_args = 0
 124              		.loc 1 31 1 is_stmt 0 view .LVU24
 125 0000 F8B5     		push	{r3, r4, r5, r6, r7, lr}
 126              		.cfi_def_cfa_offset 24
 127              		.cfi_offset 3, -24
 128              		.cfi_offset 4, -20
 129              		.cfi_offset 5, -16
 130              		.cfi_offset 6, -12
 131              		.cfi_offset 7, -8
 132              		.cfi_offset 14, -4
 133 0002 0546     		mov	r5, r0
  32:Core/Src/serial.c ****     uint8_t tail = seekp;
 134              		.loc 1 32 5 is_stmt 1 view .LVU25
 135              		.loc 1 32 13 is_stmt 0 view .LVU26
 136 0004 2B4B     		ldr	r3, .L27
 137 0006 1978     		ldrb	r1, [r3]	@ zero_extendqisi2
 138              	.LVL4:
ARM GAS  C:\Users\qwertym\AppData\Local\Temp\ccUhqC3g.s 			page 4


  33:Core/Src/serial.c ****     uint8_t flag = 0;
 139              		.loc 1 33 5 is_stmt 1 view .LVU27
  34:Core/Src/serial.c ****     while (message[tail++] != ';')
 140              		.loc 1 34 5 view .LVU28
  32:Core/Src/serial.c ****     uint8_t tail = seekp;
 141              		.loc 1 32 13 is_stmt 0 view .LVU29
 142 0008 0B46     		mov	r3, r1
  33:Core/Src/serial.c ****     uint8_t flag = 0;
 143              		.loc 1 33 13 view .LVU30
 144 000a 0020     		movs	r0, #0
 145              	.LVL5:
 146              	.L12:
 147              		.loc 1 34 28 is_stmt 1 view .LVU31
 148 000c 1C46     		mov	r4, r3
 149              		.loc 1 34 24 is_stmt 0 view .LVU32
 150 000e 0133     		adds	r3, r3, #1
 151              	.LVL6:
 152              		.loc 1 34 24 view .LVU33
 153 0010 DBB2     		uxtb	r3, r3
 154              	.LVL7:
 155              		.loc 1 34 19 view .LVU34
 156 0012 294A     		ldr	r2, .L27+4
 157 0014 125D     		ldrb	r2, [r2, r4]	@ zero_extendqisi2
 158              		.loc 1 34 28 view .LVU35
 159 0016 3B2A     		cmp	r2, #59
 160 0018 06D0     		beq	.L25
  35:Core/Src/serial.c ****     {
  36:Core/Src/serial.c ****         if (tail == 200)
 161              		.loc 1 36 9 is_stmt 1 view .LVU36
 162              		.loc 1 36 12 is_stmt 0 view .LVU37
 163 001a C82B     		cmp	r3, #200
 164 001c F6D1     		bne	.L12
  37:Core/Src/serial.c ****         {
  38:Core/Src/serial.c ****             tail = 0;
 165              		.loc 1 38 13 is_stmt 1 view .LVU38
 166              	.LVL8:
  39:Core/Src/serial.c ****             if (flag == 1)
 167              		.loc 1 39 13 view .LVU39
 168              		.loc 1 39 16 is_stmt 0 view .LVU40
 169 001e 0028     		cmp	r0, #0
 170 0020 45D1     		bne	.L22
  38:Core/Src/serial.c ****             if (flag == 1)
 171              		.loc 1 38 18 view .LVU41
 172 0022 0346     		mov	r3, r0
  40:Core/Src/serial.c ****             {
  41:Core/Src/serial.c ****                 buf = NULL;
  42:Core/Src/serial.c ****                 return 0;
  43:Core/Src/serial.c ****             }
  44:Core/Src/serial.c ****             flag = 1;
 173              		.loc 1 44 18 view .LVU42
 174 0024 0120     		movs	r0, #1
 175              	.LVL9:
 176              		.loc 1 44 18 view .LVU43
 177 0026 F1E7     		b	.L12
 178              	.LVL10:
 179              	.L25:
  45:Core/Src/serial.c ****         }
ARM GAS  C:\Users\qwertym\AppData\Local\Temp\ccUhqC3g.s 			page 5


  46:Core/Src/serial.c ****     }
  47:Core/Src/serial.c ****     tail = tail == 0 ? 0 : tail - 1; // ÂΩ¢Â¶Ç123;ÁöÑËøîÂõû123'\0'ÔºåÂéªÊéâ;
 180              		.loc 1 47 5 is_stmt 1 view .LVU44
 181              		.loc 1 47 10 is_stmt 0 view .LVU45
 182 0028 03B9     		cbnz	r3, .L15
 183 002a 1C46     		mov	r4, r3
 184              	.L15:
 185              	.LVL11:
  48:Core/Src/serial.c ****     if (flag == 0)
 186              		.loc 1 48 5 is_stmt 1 discriminator 4 view .LVU46
 187              		.loc 1 48 8 is_stmt 0 discriminator 4 view .LVU47
 188 002c F8B9     		cbnz	r0, .L16
  49:Core/Src/serial.c ****     {
  50:Core/Src/serial.c ****         memcpy(buf, message + seekp, tail - seekp);
 189              		.loc 1 50 9 is_stmt 1 view .LVU48
 190 002e 621A     		subs	r2, r4, r1
 191 0030 214B     		ldr	r3, .L27+4
 192 0032 1944     		add	r1, r1, r3
 193 0034 2846     		mov	r0, r5
 194              	.LVL12:
 195              		.loc 1 50 9 is_stmt 0 view .LVU49
 196 0036 FFF7FEFF 		bl	memcpy
 197              	.LVL13:
  51:Core/Src/serial.c ****         buf[tail - seekp] = '\0';
 198              		.loc 1 51 9 is_stmt 1 view .LVU50
 199              		.loc 1 51 18 is_stmt 0 view .LVU51
 200 003a 1E4B     		ldr	r3, .L27
 201 003c 1B78     		ldrb	r3, [r3]	@ zero_extendqisi2
 202 003e E31A     		subs	r3, r4, r3
 203              		.loc 1 51 27 view .LVU52
 204 0040 0022     		movs	r2, #0
 205 0042 EA54     		strb	r2, [r5, r3]
 206              	.L17:
  52:Core/Src/serial.c ****     }
  53:Core/Src/serial.c ****     else
  54:Core/Src/serial.c ****     {
  55:Core/Src/serial.c ****         memcpy(buf, message + seekp, 200 - seekp);
  56:Core/Src/serial.c ****         memcpy(buf + (200 - seekp), message, tail);
  57:Core/Src/serial.c ****         buf[200 - seekp + tail] = '\0';
  58:Core/Src/serial.c ****     }
  59:Core/Src/serial.c ****     if (tail + 1 == offset) // Ëã•Â∑≤ÁªèËØªÂÆåÁºìÂÜ≤Âå∫,Ê∏ÖÈô§GAIN_FÊ†áÂøó
 207              		.loc 1 59 5 is_stmt 1 view .LVU53
 208              		.loc 1 59 14 is_stmt 0 view .LVU54
 209 0044 2046     		mov	r0, r4
 210 0046 631C     		adds	r3, r4, #1
 211              		.loc 1 59 18 view .LVU55
 212 0048 1C4A     		ldr	r2, .L27+8
 213 004a 1278     		ldrb	r2, [r2]	@ zero_extendqisi2
 214              		.loc 1 59 8 view .LVU56
 215 004c 9342     		cmp	r3, r2
 216 004e 25D0     		beq	.L26
 217              	.L18:
  60:Core/Src/serial.c ****         GAIN_F = 0;
  61:Core/Src/serial.c ****     int len = tail < seekp ? 200 - seekp + tail + 1 : tail - seekp + 1;
 218              		.loc 1 61 5 is_stmt 1 view .LVU57
 219              		.loc 1 61 20 is_stmt 0 view .LVU58
 220 0050 184B     		ldr	r3, .L27
ARM GAS  C:\Users\qwertym\AppData\Local\Temp\ccUhqC3g.s 			page 6


 221 0052 1B78     		ldrb	r3, [r3]	@ zero_extendqisi2
 222              		.loc 1 61 53 view .LVU59
 223 0054 A342     		cmp	r3, r4
 224 0056 25D9     		bls	.L19
 225              		.loc 1 61 34 discriminator 1 view .LVU60
 226 0058 C3F1C803 		rsb	r3, r3, #200
 227              		.loc 1 61 42 discriminator 1 view .LVU61
 228 005c 1844     		add	r0, r0, r3
 229              		.loc 1 61 53 discriminator 1 view .LVU62
 230 005e 0130     		adds	r0, r0, #1
 231              	.L20:
 232              	.LVL14:
  62:Core/Src/serial.c ****     seekp = tail >= 199 ? 0 : tail + 1;
 233              		.loc 1 62 5 is_stmt 1 discriminator 4 view .LVU63
 234              		.loc 1 62 11 is_stmt 0 discriminator 4 view .LVU64
 235 0060 C62C     		cmp	r4, #198
 236 0062 22D8     		bhi	.L23
 237              		.loc 1 62 11 discriminator 1 view .LVU65
 238 0064 0134     		adds	r4, r4, #1
 239              	.LVL15:
 240              		.loc 1 62 11 discriminator 1 view .LVU66
 241 0066 E4B2     		uxtb	r4, r4
 242              	.L21:
 243              		.loc 1 62 11 discriminator 4 view .LVU67
 244 0068 124B     		ldr	r3, .L27
 245 006a 1C70     		strb	r4, [r3]
  63:Core/Src/serial.c ****     return len;
 246              		.loc 1 63 5 is_stmt 1 discriminator 4 view .LVU68
 247              	.LVL16:
 248              	.L10:
  64:Core/Src/serial.c **** }
 249              		.loc 1 64 1 is_stmt 0 view .LVU69
 250 006c F8BD     		pop	{r3, r4, r5, r6, r7, pc}
 251              	.LVL17:
 252              	.L16:
  55:Core/Src/serial.c ****         memcpy(buf + (200 - seekp), message, tail);
 253              		.loc 1 55 9 is_stmt 1 view .LVU70
 254 006e 124F     		ldr	r7, .L27+4
 255 0070 C1F1C802 		rsb	r2, r1, #200
 256 0074 3944     		add	r1, r1, r7
 257 0076 2846     		mov	r0, r5
 258              	.LVL18:
  55:Core/Src/serial.c ****         memcpy(buf + (200 - seekp), message, tail);
 259              		.loc 1 55 9 is_stmt 0 view .LVU71
 260 0078 FFF7FEFF 		bl	memcpy
 261              	.LVL19:
  56:Core/Src/serial.c ****         buf[200 - seekp + tail] = '\0';
 262              		.loc 1 56 9 is_stmt 1 view .LVU72
  56:Core/Src/serial.c ****         buf[200 - seekp + tail] = '\0';
 263              		.loc 1 56 27 is_stmt 0 view .LVU73
 264 007c 0D4E     		ldr	r6, .L27
 265 007e 3078     		ldrb	r0, [r6]	@ zero_extendqisi2
 266 0080 C0F1C800 		rsb	r0, r0, #200
  56:Core/Src/serial.c ****         buf[200 - seekp + tail] = '\0';
 267              		.loc 1 56 9 view .LVU74
 268 0084 2246     		mov	r2, r4
 269 0086 3946     		mov	r1, r7
ARM GAS  C:\Users\qwertym\AppData\Local\Temp\ccUhqC3g.s 			page 7


 270 0088 2844     		add	r0, r0, r5
 271 008a FFF7FEFF 		bl	memcpy
 272              	.LVL20:
  57:Core/Src/serial.c ****     }
 273              		.loc 1 57 9 is_stmt 1 view .LVU75
  57:Core/Src/serial.c ****     }
 274              		.loc 1 57 17 is_stmt 0 view .LVU76
 275 008e 3378     		ldrb	r3, [r6]	@ zero_extendqisi2
 276 0090 C3F1C803 		rsb	r3, r3, #200
  57:Core/Src/serial.c ****     }
 277              		.loc 1 57 25 view .LVU77
 278 0094 2344     		add	r3, r3, r4
  57:Core/Src/serial.c ****     }
 279              		.loc 1 57 33 view .LVU78
 280 0096 0022     		movs	r2, #0
 281 0098 EA54     		strb	r2, [r5, r3]
 282 009a D3E7     		b	.L17
 283              	.L26:
  60:Core/Src/serial.c ****     int len = tail < seekp ? 200 - seekp + tail + 1 : tail - seekp + 1;
 284              		.loc 1 60 9 is_stmt 1 view .LVU79
  60:Core/Src/serial.c ****     int len = tail < seekp ? 200 - seekp + tail + 1 : tail - seekp + 1;
 285              		.loc 1 60 16 is_stmt 0 view .LVU80
 286 009c 084B     		ldr	r3, .L27+12
 287 009e 0022     		movs	r2, #0
 288 00a0 1A70     		strb	r2, [r3]
 289 00a2 D5E7     		b	.L18
 290              	.L19:
  61:Core/Src/serial.c ****     seekp = tail >= 199 ? 0 : tail + 1;
 291              		.loc 1 61 60 discriminator 2 view .LVU81
 292 00a4 C01A     		subs	r0, r0, r3
  61:Core/Src/serial.c ****     seekp = tail >= 199 ? 0 : tail + 1;
 293              		.loc 1 61 53 discriminator 2 view .LVU82
 294 00a6 0130     		adds	r0, r0, #1
 295 00a8 DAE7     		b	.L20
 296              	.LVL21:
 297              	.L23:
  62:Core/Src/serial.c ****     return len;
 298              		.loc 1 62 11 view .LVU83
 299 00aa 0024     		movs	r4, #0
 300              	.LVL22:
  62:Core/Src/serial.c ****     return len;
 301              		.loc 1 62 11 view .LVU84
 302 00ac DCE7     		b	.L21
 303              	.LVL23:
 304              	.L22:
  42:Core/Src/serial.c ****             }
 305              		.loc 1 42 24 view .LVU85
 306 00ae 0020     		movs	r0, #0
 307              	.LVL24:
  42:Core/Src/serial.c ****             }
 308              		.loc 1 42 24 view .LVU86
 309 00b0 DCE7     		b	.L10
 310              	.L28:
 311 00b2 00BF     		.align	2
 312              	.L27:
 313 00b4 00000000 		.word	seekp
 314 00b8 00000000 		.word	message
ARM GAS  C:\Users\qwertym\AppData\Local\Temp\ccUhqC3g.s 			page 8


 315 00bc 00000000 		.word	offset
 316 00c0 00000000 		.word	GAIN_F
 317              		.cfi_endproc
 318              	.LFE69:
 320              		.section	.text.UART_available,"ax",%progbits
 321              		.align	1
 322              		.global	UART_available
 323              		.syntax unified
 324              		.thumb
 325              		.thumb_func
 327              	UART_available:
 328              	.LFB70:
  65:Core/Src/serial.c **** 
  66:Core/Src/serial.c **** /**
  67:Core/Src/serial.c ****  * @brief ‰ªéÁºìÂÜ≤Âå∫ËØªÂèñÂ≠óÁ¨¶‰∏≤
  68:Core/Src/serial.c ****  * @retval ÊòØÂê¶Â∑≤Ëá≥Â∞ëËØªÂÖ•‰∏ÄÊù°ÂÆåÊï¥ËØ≠Âè•
  69:Core/Src/serial.c ****  */
  70:Core/Src/serial.c **** uint8_t UART_available(void)
  71:Core/Src/serial.c **** {
 329              		.loc 1 71 1 is_stmt 1 view -0
 330              		.cfi_startproc
 331              		@ args = 0, pretend = 0, frame = 0
 332              		@ frame_needed = 0, uses_anonymous_args = 0
 333              		@ link register save eliminated.
  72:Core/Src/serial.c ****     return GAIN_F;
 334              		.loc 1 72 5 view .LVU88
  73:Core/Src/serial.c **** }
 335              		.loc 1 73 1 is_stmt 0 view .LVU89
 336 0000 014B     		ldr	r3, .L30
 337 0002 1878     		ldrb	r0, [r3]	@ zero_extendqisi2
 338 0004 7047     		bx	lr
 339              	.L31:
 340 0006 00BF     		.align	2
 341              	.L30:
 342 0008 00000000 		.word	GAIN_F
 343              		.cfi_endproc
 344              	.LFE70:
 346              		.global	__aeabi_d2iz
 347              		.global	__aeabi_i2d
 348              		.global	__aeabi_dsub
 349              		.global	__aeabi_dcmplt
 350              		.global	__aeabi_dmul
 351              		.section	.rodata.print_float.str1.4,"aMS",%progbits,1
 352              		.align	2
 353              	.LC0:
 354 0000 25642E25 		.ascii	"%d.%d%d%d%d%d%d \000"
 354      64256425 
 354      64256425 
 354      64256420 
 354      00
 355              		.section	.text.print_float,"ax",%progbits
 356              		.align	1
 357              		.global	print_float
 358              		.syntax unified
 359              		.thumb
 360              		.thumb_func
 362              	print_float:
ARM GAS  C:\Users\qwertym\AppData\Local\Temp\ccUhqC3g.s 			page 9


 363              	.LVL25:
 364              	.LFB71:
  74:Core/Src/serial.c **** 
  75:Core/Src/serial.c **** /**
  76:Core/Src/serial.c ****  * @brief Áî±‰∫éÂ•áÊÄ™ÁöÑÂéüÂõ†ÔºåÁî®makefileÁîüÊàêÊó∂sprintfÊó†Ê≥ïÂ§ÑÁêÜÂ∞èÊï∞ÔºåkeilÊ≤°ÊúâËøô‰∏™È
  77:Core/Src/serial.c ****  */
  78:Core/Src/serial.c **** void print_float(double value)
  79:Core/Src/serial.c **** {
 365              		.loc 1 79 1 is_stmt 1 view -0
 366              		.cfi_startproc
 367              		@ args = 0, pretend = 0, frame = 8
 368              		@ frame_needed = 0, uses_anonymous_args = 0
 369              		.loc 1 79 1 is_stmt 0 view .LVU91
 370 0000 2DE9F04F 		push	{r4, r5, r6, r7, r8, r9, r10, fp, lr}
 371              		.cfi_def_cfa_offset 36
 372              		.cfi_offset 4, -36
 373              		.cfi_offset 5, -32
 374              		.cfi_offset 6, -28
 375              		.cfi_offset 7, -24
 376              		.cfi_offset 8, -20
 377              		.cfi_offset 9, -16
 378              		.cfi_offset 10, -12
 379              		.cfi_offset 11, -8
 380              		.cfi_offset 14, -4
 381 0004 87B0     		sub	sp, sp, #28
 382              		.cfi_def_cfa_offset 64
 383 0006 0446     		mov	r4, r0
 384 0008 0D46     		mov	r5, r1
  80:Core/Src/serial.c ****     int z, tmp1, tmp2, tmp3, tmp4, tmp5, tmp6;
 385              		.loc 1 80 5 is_stmt 1 view .LVU92
  81:Core/Src/serial.c ****     z = (int)value;       // Êï¥Êï∞ÈÉ®ÂàÜ+Á¨¶Âè∑
 386              		.loc 1 81 5 view .LVU93
 387              		.loc 1 81 7 is_stmt 0 view .LVU94
 388 000a FFF7FEFF 		bl	__aeabi_d2iz
 389              	.LVL26:
 390              		.loc 1 81 7 view .LVU95
 391 000e 0590     		str	r0, [sp, #20]
 392              	.LVL27:
  82:Core/Src/serial.c ****     double f = value - z; // Â∞èÊï∞ÈÉ®ÂàÜ
 393              		.loc 1 82 5 is_stmt 1 view .LVU96
 394              		.loc 1 82 22 is_stmt 0 view .LVU97
 395 0010 FFF7FEFF 		bl	__aeabi_i2d
 396              	.LVL28:
 397              		.loc 1 82 22 view .LVU98
 398 0014 0246     		mov	r2, r0
 399 0016 0B46     		mov	r3, r1
 400              		.loc 1 82 12 view .LVU99
 401 0018 2046     		mov	r0, r4
 402 001a 2946     		mov	r1, r5
 403 001c FFF7FEFF 		bl	__aeabi_dsub
 404              	.LVL29:
 405 0020 0446     		mov	r4, r0
 406 0022 0D46     		mov	r5, r1
 407              	.LVL30:
  83:Core/Src/serial.c ****     f = f < 0 ? -f : f;   // abs
 408              		.loc 1 83 5 is_stmt 1 view .LVU100
 409              		.loc 1 83 20 is_stmt 0 view .LVU101
ARM GAS  C:\Users\qwertym\AppData\Local\Temp\ccUhqC3g.s 			page 10


 410 0024 0022     		movs	r2, #0
 411 0026 0023     		movs	r3, #0
 412 0028 FFF7FEFF 		bl	__aeabi_dcmplt
 413              	.LVL31:
 414 002c 0028     		cmp	r0, #0
 415 002e 7DD1     		bne	.L37
 416              	.L33:
  84:Core/Src/serial.c ****     tmp1 = (int)(f * 10) % 10;
 417              		.loc 1 84 5 is_stmt 1 discriminator 4 view .LVU102
 418              		.loc 1 84 20 is_stmt 0 discriminator 4 view .LVU103
 419 0030 0022     		movs	r2, #0
 420 0032 474B     		ldr	r3, .L38+24
 421 0034 2046     		mov	r0, r4
 422 0036 2946     		mov	r1, r5
 423 0038 FFF7FEFF 		bl	__aeabi_dmul
 424              	.LVL32:
 425              		.loc 1 84 12 discriminator 4 view .LVU104
 426 003c FFF7FEFF 		bl	__aeabi_d2iz
 427              	.LVL33:
 428              		.loc 1 84 10 discriminator 4 view .LVU105
 429 0040 DFF810B1 		ldr	fp, .L38+28
 430 0044 8BFB0023 		smull	r2, r3, fp, r0
 431 0048 C617     		asrs	r6, r0, #31
 432 004a C6EBA306 		rsb	r6, r6, r3, asr #2
 433 004e 06EB8606 		add	r6, r6, r6, lsl #2
 434 0052 A0EB4606 		sub	r6, r0, r6, lsl #1
 435              	.LVL34:
  85:Core/Src/serial.c ****     tmp2 = (int)(f * 100) % 10;
 436              		.loc 1 85 5 is_stmt 1 discriminator 4 view .LVU106
 437              		.loc 1 85 20 is_stmt 0 discriminator 4 view .LVU107
 438 0056 0022     		movs	r2, #0
 439 0058 3F4B     		ldr	r3, .L38+32
 440 005a 2046     		mov	r0, r4
 441 005c 2946     		mov	r1, r5
 442 005e FFF7FEFF 		bl	__aeabi_dmul
 443              	.LVL35:
 444              		.loc 1 85 12 discriminator 4 view .LVU108
 445 0062 FFF7FEFF 		bl	__aeabi_d2iz
 446              	.LVL36:
 447              		.loc 1 85 10 discriminator 4 view .LVU109
 448 0066 8BFB0023 		smull	r2, r3, fp, r0
 449 006a C717     		asrs	r7, r0, #31
 450 006c C7EBA307 		rsb	r7, r7, r3, asr #2
 451 0070 07EB8707 		add	r7, r7, r7, lsl #2
 452 0074 A0EB4707 		sub	r7, r0, r7, lsl #1
 453              	.LVL37:
  86:Core/Src/serial.c ****     tmp3 = (int)(f * 1000) % 10;
 454              		.loc 1 86 5 is_stmt 1 discriminator 4 view .LVU110
 455              		.loc 1 86 20 is_stmt 0 discriminator 4 view .LVU111
 456 0078 0022     		movs	r2, #0
 457 007a 384B     		ldr	r3, .L38+36
 458 007c 2046     		mov	r0, r4
 459 007e 2946     		mov	r1, r5
 460 0080 FFF7FEFF 		bl	__aeabi_dmul
 461              	.LVL38:
 462              		.loc 1 86 12 discriminator 4 view .LVU112
 463 0084 FFF7FEFF 		bl	__aeabi_d2iz
ARM GAS  C:\Users\qwertym\AppData\Local\Temp\ccUhqC3g.s 			page 11


 464              	.LVL39:
 465              		.loc 1 86 10 discriminator 4 view .LVU113
 466 0088 8BFB0023 		smull	r2, r3, fp, r0
 467 008c 4FEAE078 		asr	r8, r0, #31
 468 0090 C8EBA308 		rsb	r8, r8, r3, asr #2
 469 0094 08EB8808 		add	r8, r8, r8, lsl #2
 470 0098 A0EB4808 		sub	r8, r0, r8, lsl #1
 471              	.LVL40:
  87:Core/Src/serial.c ****     tmp4 = (int)(f * 10000) % 10;
 472              		.loc 1 87 5 is_stmt 1 discriminator 4 view .LVU114
 473              		.loc 1 87 20 is_stmt 0 discriminator 4 view .LVU115
 474 009c 26A3     		adr	r3, .L38
 475 009e D3E90023 		ldrd	r2, [r3]
 476 00a2 2046     		mov	r0, r4
 477 00a4 2946     		mov	r1, r5
 478 00a6 FFF7FEFF 		bl	__aeabi_dmul
 479              	.LVL41:
 480              		.loc 1 87 12 discriminator 4 view .LVU116
 481 00aa FFF7FEFF 		bl	__aeabi_d2iz
 482              	.LVL42:
 483              		.loc 1 87 10 discriminator 4 view .LVU117
 484 00ae 8BFB0023 		smull	r2, r3, fp, r0
 485 00b2 4FEAE079 		asr	r9, r0, #31
 486 00b6 C9EBA309 		rsb	r9, r9, r3, asr #2
 487 00ba 09EB8909 		add	r9, r9, r9, lsl #2
 488 00be A0EB4909 		sub	r9, r0, r9, lsl #1
 489              	.LVL43:
  88:Core/Src/serial.c ****     tmp5 = (int)(f * 100000) % 10;
 490              		.loc 1 88 5 is_stmt 1 discriminator 4 view .LVU118
 491              		.loc 1 88 20 is_stmt 0 discriminator 4 view .LVU119
 492 00c2 1FA3     		adr	r3, .L38+8
 493 00c4 D3E90023 		ldrd	r2, [r3]
 494 00c8 2046     		mov	r0, r4
 495 00ca 2946     		mov	r1, r5
 496 00cc FFF7FEFF 		bl	__aeabi_dmul
 497              	.LVL44:
 498              		.loc 1 88 12 discriminator 4 view .LVU120
 499 00d0 FFF7FEFF 		bl	__aeabi_d2iz
 500              	.LVL45:
 501              		.loc 1 88 10 discriminator 4 view .LVU121
 502 00d4 8BFB0023 		smull	r2, r3, fp, r0
 503 00d8 4FEAE07A 		asr	r10, r0, #31
 504 00dc CAEBA30A 		rsb	r10, r10, r3, asr #2
 505 00e0 0AEB8A0A 		add	r10, r10, r10, lsl #2
 506 00e4 A0EB4A0A 		sub	r10, r0, r10, lsl #1
 507              	.LVL46:
  89:Core/Src/serial.c ****     tmp6 = (int)(f * 1000000) % 10;
 508              		.loc 1 89 5 is_stmt 1 discriminator 4 view .LVU122
 509              		.loc 1 89 20 is_stmt 0 discriminator 4 view .LVU123
 510 00e8 17A3     		adr	r3, .L38+16
 511 00ea D3E90023 		ldrd	r2, [r3]
 512 00ee 2046     		mov	r0, r4
 513 00f0 2946     		mov	r1, r5
 514 00f2 FFF7FEFF 		bl	__aeabi_dmul
 515              	.LVL47:
 516              		.loc 1 89 12 discriminator 4 view .LVU124
 517 00f6 FFF7FEFF 		bl	__aeabi_d2iz
ARM GAS  C:\Users\qwertym\AppData\Local\Temp\ccUhqC3g.s 			page 12


 518              	.LVL48:
 519              		.loc 1 89 10 discriminator 4 view .LVU125
 520 00fa 8BFB003B 		smull	r3, fp, fp, r0
 521 00fe C317     		asrs	r3, r0, #31
 522 0100 C3EBAB03 		rsb	r3, r3, fp, asr #2
 523 0104 03EB8303 		add	r3, r3, r3, lsl #2
 524 0108 A0EB4303 		sub	r3, r0, r3, lsl #1
 525              	.LVL49:
  90:Core/Src/serial.c ****     printf("%d.%d%d%d%d%d%d ", z, tmp1, tmp2, tmp3, tmp4, tmp5, tmp6);
 526              		.loc 1 90 5 is_stmt 1 discriminator 4 view .LVU126
 527 010c 0393     		str	r3, [sp, #12]
 528 010e CDF808A0 		str	r10, [sp, #8]
 529 0112 CDF80490 		str	r9, [sp, #4]
 530 0116 CDF80080 		str	r8, [sp]
 531 011a 3B46     		mov	r3, r7
 532              	.LVL50:
 533              		.loc 1 90 5 is_stmt 0 discriminator 4 view .LVU127
 534 011c 3246     		mov	r2, r6
 535 011e 0599     		ldr	r1, [sp, #20]
 536 0120 0F48     		ldr	r0, .L38+40
 537 0122 FFF7FEFF 		bl	printf
 538              	.LVL51:
  91:Core/Src/serial.c **** }
 539              		.loc 1 91 1 discriminator 4 view .LVU128
 540 0126 07B0     		add	sp, sp, #28
 541              		.cfi_remember_state
 542              		.cfi_def_cfa_offset 36
 543              		@ sp needed
 544 0128 BDE8F08F 		pop	{r4, r5, r6, r7, r8, r9, r10, fp, pc}
 545              	.LVL52:
 546              	.L37:
 547              		.cfi_restore_state
  83:Core/Src/serial.c ****     tmp1 = (int)(f * 10) % 10;
 548              		.loc 1 83 20 discriminator 1 view .LVU129
 549 012c 05F10043 		add	r3, r5, #-2147483648
 550 0130 1D46     		mov	r5, r3
 551 0132 7DE7     		b	.L33
 552              	.L39:
 553 0134 AFF30080 		.align	3
 554              	.L38:
 555 0138 00000000 		.word	0
 556 013c 0088C340 		.word	1086556160
 557 0140 00000000 		.word	0
 558 0144 006AF840 		.word	1090021888
 559 0148 00000000 		.word	0
 560 014c 80842E41 		.word	1093567616
 561 0150 00002440 		.word	1076101120
 562 0154 67666666 		.word	1717986919
 563 0158 00005940 		.word	1079574528
 564 015c 00408F40 		.word	1083129856
 565 0160 00000000 		.word	.LC0
 566              		.cfi_endproc
 567              	.LFE71:
 569              		.section	.text.print_debug,"ax",%progbits
 570              		.align	1
 571              		.global	print_debug
 572              		.syntax unified
ARM GAS  C:\Users\qwertym\AppData\Local\Temp\ccUhqC3g.s 			page 13


 573              		.thumb
 574              		.thumb_func
 576              	print_debug:
 577              	.LVL53:
 578              	.LFB72:
  92:Core/Src/serial.c **** 
  93:Core/Src/serial.c **** /**
  94:Core/Src/serial.c ****  * @brief ËæìÂá∫ËØ¶ÁªÜÊó•ÂøóÔºåÁî±‰∫éprintfÊó†Ê≥ïÂ§ÑÁêÜÂ∞èÊï∞ÔºåÊïÖÁî®Ê≠§‰ª£Êõø
  95:Core/Src/serial.c ****  */
  96:Core/Src/serial.c **** void print_debug(char *str, double a, double b, double c, char *end)
  97:Core/Src/serial.c **** {
 579              		.loc 1 97 1 is_stmt 1 view -0
 580              		.cfi_startproc
 581              		@ args = 20, pretend = 0, frame = 0
 582              		@ frame_needed = 0, uses_anonymous_args = 0
 583              		@ link register save eliminated.
  98:Core/Src/serial.c ****     if (CURRENT_LEVEL <= DEBUG_LEVEL)
 584              		.loc 1 98 5 view .LVU131
  99:Core/Src/serial.c ****     {
 100:Core/Src/serial.c ****         USART_OUT;
 101:Core/Src/serial.c ****         printf("[debug] %s", str);
 102:Core/Src/serial.c ****         print_float(a);
 103:Core/Src/serial.c ****         print_float(b);
 104:Core/Src/serial.c ****         print_float(c);
 105:Core/Src/serial.c ****         printf("%s", end);
 106:Core/Src/serial.c ****         USART_IN;
 107:Core/Src/serial.c ****     }
 108:Core/Src/serial.c **** }
 585              		.loc 1 108 1 is_stmt 0 view .LVU132
 586 0000 7047     		bx	lr
 587              		.cfi_endproc
 588              	.LFE72:
 590              		.section	.text.print_info,"ax",%progbits
 591              		.align	1
 592              		.global	print_info
 593              		.syntax unified
 594              		.thumb
 595              		.thumb_func
 597              	print_info:
 598              	.LVL54:
 599              	.LFB73:
 109:Core/Src/serial.c **** 
 110:Core/Src/serial.c **** /**
 111:Core/Src/serial.c ****  * @brief ËæìÂá∫Êó•ÂøóÔºåÁî±‰∫éprintfÊó†Ê≥ïÂ§ÑÁêÜÂ∞èÊï∞ÔºåÊïÖÁî®Ê≠§‰ª£Êõø
 112:Core/Src/serial.c ****  */
 113:Core/Src/serial.c **** void print_info(char *str, double a, double b, double c, char *end)
 114:Core/Src/serial.c **** {
 600              		.loc 1 114 1 is_stmt 1 view -0
 601              		.cfi_startproc
 602              		@ args = 20, pretend = 0, frame = 0
 603              		@ frame_needed = 0, uses_anonymous_args = 0
 604              		@ link register save eliminated.
 115:Core/Src/serial.c ****     if (CURRENT_LEVEL <= INFO_LEVEL)
 605              		.loc 1 115 5 view .LVU134
 116:Core/Src/serial.c ****     {
 117:Core/Src/serial.c ****         USART_OUT;
 118:Core/Src/serial.c ****         printf("[info] %s", str);
ARM GAS  C:\Users\qwertym\AppData\Local\Temp\ccUhqC3g.s 			page 14


 119:Core/Src/serial.c ****         print_float(a);
 120:Core/Src/serial.c ****         print_float(b);
 121:Core/Src/serial.c ****         print_float(c);
 122:Core/Src/serial.c ****         printf("%s", end);
 123:Core/Src/serial.c ****         USART_IN;
 124:Core/Src/serial.c ****     }
 125:Core/Src/serial.c **** }
 606              		.loc 1 125 1 is_stmt 0 view .LVU135
 607 0000 7047     		bx	lr
 608              		.cfi_endproc
 609              	.LFE73:
 611              		.section	.rodata.print_release.str1.4,"aMS",%progbits,1
 612              		.align	2
 613              	.LC1:
 614 0000 257300   		.ascii	"%s\000"
 615              		.section	.text.print_release,"ax",%progbits
 616              		.align	1
 617              		.global	print_release
 618              		.syntax unified
 619              		.thumb
 620              		.thumb_func
 622              	print_release:
 623              	.LVL55:
 624              	.LFB74:
 126:Core/Src/serial.c **** 
 127:Core/Src/serial.c **** /**
 128:Core/Src/serial.c ****  * @brief ËøîÂõûÂëΩ‰ª§ÁªìÊûúÔºåÁî±‰∫éprintfÊó†Ê≥ïÂ§ÑÁêÜÂ∞èÊï∞ÔºåÊïÖÁî®Ê≠§‰ª£Êõø
 129:Core/Src/serial.c ****  */
 130:Core/Src/serial.c **** void print_release(char *str, double a, double b, double c, char *end)
 131:Core/Src/serial.c **** {
 625              		.loc 1 131 1 is_stmt 1 view -0
 626              		.cfi_startproc
 627              		@ args = 20, pretend = 0, frame = 152
 628              		@ frame_needed = 0, uses_anonymous_args = 0
 629              		.loc 1 131 1 is_stmt 0 view .LVU137
 630 0000 2DE9F041 		push	{r4, r5, r6, r7, r8, lr}
 631              		.cfi_def_cfa_offset 24
 632              		.cfi_offset 4, -24
 633              		.cfi_offset 5, -20
 634              		.cfi_offset 6, -16
 635              		.cfi_offset 7, -12
 636              		.cfi_offset 8, -8
 637              		.cfi_offset 14, -4
 638 0004 A6B0     		sub	sp, sp, #152
 639              		.cfi_def_cfa_offset 176
 640 0006 0546     		mov	r5, r0
 641 0008 1646     		mov	r6, r2
 642 000a 1F46     		mov	r7, r3
 132:Core/Src/serial.c ****     if (CURRENT_LEVEL == RELEASE_LEVEL)
 643              		.loc 1 132 5 is_stmt 1 view .LVU138
 133:Core/Src/serial.c ****     {
 134:Core/Src/serial.c ****         m_printf("%s", str);
 644              		.loc 1 134 9 view .LVU139
 645              	.LBB2:
 646              		.loc 1 134 9 view .LVU140
 647 000c 224C     		ldr	r4, .L44
 648 000e 0122     		movs	r2, #1
ARM GAS  C:\Users\qwertym\AppData\Local\Temp\ccUhqC3g.s 			page 15


 649              	.LVL56:
 650              		.loc 1 134 9 is_stmt 0 view .LVU141
 651 0010 1021     		movs	r1, #16
 652 0012 2046     		mov	r0, r4
 653              	.LVL57:
 654              		.loc 1 134 9 view .LVU142
 655 0014 FFF7FEFF 		bl	HAL_GPIO_WritePin
 656              	.LVL58:
 657              		.loc 1 134 9 is_stmt 1 view .LVU143
 658              		.loc 1 134 9 view .LVU144
 659 0018 DFF88080 		ldr	r8, .L44+4
 660 001c 2A46     		mov	r2, r5
 661 001e 4146     		mov	r1, r8
 662 0020 6846     		mov	r0, sp
 663 0022 FFF7FEFF 		bl	sprintf
 664              	.LVL59:
 665              		.loc 1 134 9 view .LVU145
 666 0026 1E4D     		ldr	r5, .L44+8
 667              	.LVL60:
 668              		.loc 1 134 9 is_stmt 0 view .LVU146
 669 0028 4FF6FF73 		movw	r3, #65535
 670 002c 82B2     		uxth	r2, r0
 671 002e 6946     		mov	r1, sp
 672 0030 2846     		mov	r0, r5
 673              	.LVL61:
 674              		.loc 1 134 9 view .LVU147
 675 0032 FFF7FEFF 		bl	HAL_UART_Transmit
 676              	.LVL62:
 677              		.loc 1 134 9 is_stmt 1 view .LVU148
 678 0036 3220     		movs	r0, #50
 679 0038 FFF7FEFF 		bl	HAL_Delay
 680              	.LVL63:
 681              		.loc 1 134 9 view .LVU149
 682 003c 0022     		movs	r2, #0
 683 003e 1021     		movs	r1, #16
 684 0040 2046     		mov	r0, r4
 685 0042 FFF7FEFF 		bl	HAL_GPIO_WritePin
 686              	.LVL64:
 687              	.LBE2:
 688              		.loc 1 134 9 view .LVU150
 135:Core/Src/serial.c ****         print_float(a);
 689              		.loc 1 135 9 view .LVU151
 690 0046 3046     		mov	r0, r6
 691 0048 3946     		mov	r1, r7
 692 004a FFF7FEFF 		bl	print_float
 693              	.LVL65:
 136:Core/Src/serial.c ****         print_float(b);
 694              		.loc 1 136 9 view .LVU152
 695 004e DDE92C01 		ldrd	r0, [sp, #176]
 696 0052 FFF7FEFF 		bl	print_float
 697              	.LVL66:
 137:Core/Src/serial.c ****         print_float(c);
 698              		.loc 1 137 9 view .LVU153
 699 0056 DDE92E01 		ldrd	r0, [sp, #184]
 700 005a FFF7FEFF 		bl	print_float
 701              	.LVL67:
 138:Core/Src/serial.c ****         m_printf("%s", end);
ARM GAS  C:\Users\qwertym\AppData\Local\Temp\ccUhqC3g.s 			page 16


 702              		.loc 1 138 9 view .LVU154
 703              	.LBB3:
 704              		.loc 1 138 9 view .LVU155
 705 005e 0122     		movs	r2, #1
 706 0060 1021     		movs	r1, #16
 707 0062 2046     		mov	r0, r4
 708 0064 FFF7FEFF 		bl	HAL_GPIO_WritePin
 709              	.LVL68:
 710              		.loc 1 138 9 view .LVU156
 711              		.loc 1 138 9 view .LVU157
 712 0068 309A     		ldr	r2, [sp, #192]
 713 006a 4146     		mov	r1, r8
 714 006c 6846     		mov	r0, sp
 715 006e FFF7FEFF 		bl	sprintf
 716              	.LVL69:
 717              		.loc 1 138 9 view .LVU158
 718 0072 4FF6FF73 		movw	r3, #65535
 719 0076 82B2     		uxth	r2, r0
 720 0078 6946     		mov	r1, sp
 721 007a 2846     		mov	r0, r5
 722              	.LVL70:
 723              		.loc 1 138 9 is_stmt 0 view .LVU159
 724 007c FFF7FEFF 		bl	HAL_UART_Transmit
 725              	.LVL71:
 726              		.loc 1 138 9 is_stmt 1 view .LVU160
 727 0080 3220     		movs	r0, #50
 728 0082 FFF7FEFF 		bl	HAL_Delay
 729              	.LVL72:
 730              		.loc 1 138 9 view .LVU161
 731 0086 0022     		movs	r2, #0
 732 0088 1021     		movs	r1, #16
 733 008a 2046     		mov	r0, r4
 734 008c FFF7FEFF 		bl	HAL_GPIO_WritePin
 735              	.LVL73:
 736              	.LBE3:
 737              		.loc 1 138 9 view .LVU162
 139:Core/Src/serial.c ****     }
 140:Core/Src/serial.c **** }
 738              		.loc 1 140 1 is_stmt 0 view .LVU163
 739 0090 26B0     		add	sp, sp, #152
 740              		.cfi_def_cfa_offset 24
 741              		@ sp needed
 742 0092 BDE8F081 		pop	{r4, r5, r6, r7, r8, pc}
 743              	.LVL74:
 744              	.L45:
 745              		.loc 1 140 1 view .LVU164
 746 0096 00BF     		.align	2
 747              	.L44:
 748 0098 00080140 		.word	1073809408
 749 009c 00000000 		.word	.LC1
 750 00a0 00000000 		.word	huart2
 751              		.cfi_endproc
 752              	.LFE74:
 754              		.global	recvMsg
 755              		.section	.bss.recvMsg,"aw",%nobits
 758              	recvMsg:
 759 0000 00       		.space	1
ARM GAS  C:\Users\qwertym\AppData\Local\Temp\ccUhqC3g.s 			page 17


 760              		.global	seekp
 761              		.section	.bss.seekp,"aw",%nobits
 764              	seekp:
 765 0000 00       		.space	1
 766              		.global	GAIN_F
 767              		.section	.bss.GAIN_F,"aw",%nobits
 770              	GAIN_F:
 771 0000 00       		.space	1
 772              		.global	RX_Flag
 773              		.section	.bss.RX_Flag,"aw",%nobits
 776              	RX_Flag:
 777 0000 00       		.space	1
 778              		.global	offset
 779              		.section	.bss.offset,"aw",%nobits
 782              	offset:
 783 0000 00       		.space	1
 784              		.global	message
 785              		.section	.bss.message,"aw",%nobits
 786              		.align	2
 789              	message:
 790 0000 00000000 		.space	200
 790      00000000 
 790      00000000 
 790      00000000 
 790      00000000 
 791              		.text
 792              	.Letext0:
 793              		.file 2 "d:\\coding\\stc\\12.2 mpacbti-bet1\\arm-none-eabi\\include\\machine\\_default_types.h"
 794              		.file 3 "d:\\coding\\stc\\12.2 mpacbti-bet1\\arm-none-eabi\\include\\sys\\_stdint.h"
 795              		.file 4 "Drivers/CMSIS/Device/ST/STM32F1xx/Include/stm32f103xb.h"
 796              		.file 5 "d:\\coding\\stc\\12.2 mpacbti-bet1\\lib\\gcc\\arm-none-eabi\\12.2.0\\include\\stddef.h"
 797              		.file 6 "Drivers/STM32F1xx_HAL_Driver/Inc/stm32f1xx_hal_def.h"
 798              		.file 7 "Drivers/STM32F1xx_HAL_Driver/Inc/stm32f1xx_hal_gpio.h"
 799              		.file 8 "Drivers/STM32F1xx_HAL_Driver/Inc/stm32f1xx_hal_dma.h"
 800              		.file 9 "Drivers/STM32F1xx_HAL_Driver/Inc/stm32f1xx_hal_uart.h"
 801              		.file 10 "Core/Inc/usart.h"
 802              		.file 11 "d:\\coding\\stc\\12.2 mpacbti-bet1\\arm-none-eabi\\include\\stdio.h"
 803              		.file 12 "Drivers/STM32F1xx_HAL_Driver/Inc/stm32f1xx_hal.h"
 804              		.file 13 "d:\\coding\\stc\\12.2 mpacbti-bet1\\arm-none-eabi\\include\\string.h"
 805              		.file 14 "Core/Inc/serial.h"
 806              		.file 15 "<built-in>"
ARM GAS  C:\Users\qwertym\AppData\Local\Temp\ccUhqC3g.s 			page 18

